ccopy_reg
_reconstructor
p1
(cmatplotlib.font_manager
FontManager
p2
c__builtin__
object
p3
NtRp4
(dp5
S'ttflist'
p6
(lp7
g1
(cmatplotlib.font_manager
FontEntry
p8
g3
NtRp9
(dp10
S'style'
p11
Vnormal
p12
sS'name'
p13
VBitstream Vera Serif
p14
sS'weight'
p15
I400
sS'stretch'
p16
g12
sS'variant'
p17
g12
sS'fname'
p18
V/usr/local/lib/python2.7/dist-packages/matplotlib/mpl-data/fonts/ttf/VeraSe.ttf
p19
sS'size'
p20
Vscalable
p21
sbag1
(g8
g3
NtRp22
(dp23
g11
Voblique
p24
sg13
VBitstream Vera Sans Mono
p25
sg15
I700
sg16
g12
sg17
g12
sg18
V/usr/local/lib/python2.7/dist-packages/matplotlib/mpl-data/fonts/ttf/VeraMoBI.ttf
p26
sg20
g21
sbag1
(g8
g3
NtRp27
(dp28
g11
g12
sg13
VSTIXNonUnicode
p29
sg15
I400
sg16
g12
sg17
g12
sg18
V/usr/local/lib/python2.7/dist-packages/matplotlib/mpl-data/fonts/ttf/STIXNonUni.ttf
p30
sg20
g21
sbag1
(g8
g3
NtRp31
(dp32
g11
g12
sg13
VSTIXSizeFourSym
p33
sg15
I400
sg16
g12
sg17
g12
sg18
V/usr/local/lib/python2.7/dist-packages/matplotlib/mpl-data/fonts/ttf/STIXSizFourSymReg.ttf
p34
sg20
g21
sbag1
(g8
g3
NtRp35
(dp36
g11
g12
sg13
VSTIXGeneral
p37
sg15
I700
sg16
g12
sg17
g12
sg18
V/usr/local/lib/python2.7/dist-packages/matplotlib/mpl-data/fonts/ttf/STIXGeneralBol.ttf
p38
sg20
g21
sbag1
(g8
g3
NtRp39
(dp40
g11
g12
sg13
VBitstream Vera Sans
p41
sg15
I400
sg16
g12
sg17
g12
sg18
V/usr/local/lib/python2.7/dist-packages/matplotlib/mpl-data/fonts/ttf/Vera.ttf
p42
sg20
g21
sbag1
(g8
g3
NtRp43
(dp44
g11
g12
sg13
VSTIXNonUnicode
p45
sg15
I700
sg16
g12
sg17
g12
sg18
V/usr/local/lib/python2.7/dist-packages/matplotlib/mpl-data/fonts/ttf/STIXNonUniBol.ttf
p46
sg20
g21
sbag1
(g8
g3
NtRp47
(dp48
g11
g12
sg13
VSTIXSizeTwoSym
p49
sg15
I400
sg16
g12
sg17
g12
sg18
V/usr/local/lib/python2.7/dist-packages/matplotlib/mpl-data/fonts/ttf/STIXSizTwoSymReg.ttf
p50
sg20
g21
sbag1
(g8
g3
NtRp51
(dp52
g11
Vitalic
p53
sg13
VSTIXNonUnicode
p54
sg15
I400
sg16
g12
sg17
g12
sg18
V/usr/local/lib/python2.7/dist-packages/matplotlib/mpl-data/fonts/ttf/STIXNonUniIta.ttf
p55
sg20
g21
sbag1
(g8
g3
NtRp56
(dp57
g11
g12
sg13
VBitstream Vera Sans
p58
sg15
I700
sg16
g12
sg17
g12
sg18
V/usr/local/lib/python2.7/dist-packages/matplotlib/mpl-data/fonts/ttf/VeraBd.ttf
p59
sg20
g21
sbag1
(g8
g3
NtRp60
(dp61
g11
g12
sg13
VSTIXSizeThreeSym
p62
sg15
I700
sg16
g12
sg17
g12
sg18
V/usr/local/lib/python2.7/dist-packages/matplotlib/mpl-data/fonts/ttf/STIXSizThreeSymBol.ttf
p63
sg20
g21
sbag1
(g8
g3
NtRp64
(dp65
g11
g12
sg13
VSTIXSizeOneSym
p66
sg15
I700
sg16
g12
sg17
g12
sg18
V/usr/local/lib/python2.7/dist-packages/matplotlib/mpl-data/fonts/ttf/STIXSizOneSymBol.ttf
p67
sg20
g21
sbag1
(g8
g3
NtRp68
(dp69
g11
g24
sg13
VBitstream Vera Sans
p70
sg15
I400
sg16
g12
sg17
g12
sg18
V/usr/local/lib/python2.7/dist-packages/matplotlib/mpl-data/fonts/ttf/VeraIt.ttf
p71
sg20
g21
sbag1
(g8
g3
NtRp72
(dp73
g11
g53
sg13
VSTIXGeneral
p74
sg15
I700
sg16
g12
sg17
g12
sg18
V/usr/local/lib/python2.7/dist-packages/matplotlib/mpl-data/fonts/ttf/STIXGeneralBolIta.ttf
p75
sg20
g21
sbag1
(g8
g3
NtRp76
(dp77
g11
g12
sg13
Vcmsy10
p78
sg15
I400
sg16
g12
sg17
g12
sg18
V/usr/local/lib/python2.7/dist-packages/matplotlib/mpl-data/fonts/ttf/cmsy10.ttf
p79
sg20
g21
sbag1
(g8
g3
NtRp80
(dp81
g11
g12
sg13
Vcmss10
p82
sg15
I400
sg16
g12
sg17
g12
sg18
V/usr/local/lib/python2.7/dist-packages/matplotlib/mpl-data/fonts/ttf/cmss10.ttf
p83
sg20
g21
sbag1
(g8
g3
NtRp84
(dp85
g11
g53
sg13
VSTIXNonUnicode
p86
sg15
I700
sg16
g12
sg17
g12
sg18
V/usr/local/lib/python2.7/dist-packages/matplotlib/mpl-data/fonts/ttf/STIXNonUniBolIta.ttf
p87
sg20
g21
sbag1
(g8
g3
NtRp88
(dp89
g11
g12
sg13
VSTIXSizeThreeSym
p90
sg15
I400
sg16
g12
sg17
g12
sg18
V/usr/local/lib/python2.7/dist-packages/matplotlib/mpl-data/fonts/ttf/STIXSizThreeSymReg.ttf
p91
sg20
g21
sbag1
(g8
g3
NtRp92
(dp93
g11
g12
sg13
Vcmmi10
p94
sg15
I400
sg16
g12
sg17
g12
sg18
V/usr/local/lib/python2.7/dist-packages/matplotlib/mpl-data/fonts/ttf/cmmi10.ttf
p95
sg20
g21
sbag1
(g8
g3
NtRp96
(dp97
g11
g12
sg13
Vcmb10
p98
sg15
I400
sg16
g12
sg17
g12
sg18
V/usr/local/lib/python2.7/dist-packages/matplotlib/mpl-data/fonts/ttf/cmb10.ttf
p99
sg20
g21
sbag1
(g8
g3
NtRp100
(dp101
g11
g12
sg13
VSTIXSizeFiveSym
p102
sg15
I400
sg16
g12
sg17
g12
sg18
V/usr/local/lib/python2.7/dist-packages/matplotlib/mpl-data/fonts/ttf/STIXSizFiveSymReg.ttf
p103
sg20
g21
sbag1
(g8
g3
NtRp104
(dp105
g11
g12
sg13
VSTIXSizeTwoSym
p106
sg15
I700
sg16
g12
sg17
g12
sg18
V/usr/local/lib/python2.7/dist-packages/matplotlib/mpl-data/fonts/ttf/STIXSizTwoSymBol.ttf
p107
sg20
g21
sbag1
(g8
g3
NtRp108
(dp109
g11
g12
sg13
VSTIXSizeFourSym
p110
sg15
I700
sg16
g12
sg17
g12
sg18
V/usr/local/lib/python2.7/dist-packages/matplotlib/mpl-data/fonts/ttf/STIXSizFourSymBol.ttf
p111
sg20
g21
sbag1
(g8
g3
NtRp112
(dp113
g11
g12
sg13
VBitstream Vera Sans Mono
p114
sg15
I700
sg16
g12
sg17
g12
sg18
V/usr/local/lib/python2.7/dist-packages/matplotlib/mpl-data/fonts/ttf/VeraMoBd.ttf
p115
sg20
g21
sbag1
(g8
g3
NtRp116
(dp117
g11
g12
sg13
VBitstream Vera Sans Mono
p118
sg15
I400
sg16
g12
sg17
g12
sg18
V/usr/local/lib/python2.7/dist-packages/matplotlib/mpl-data/fonts/ttf/VeraMono.ttf
p119
sg20
g21
sbag1
(g8
g3
NtRp120
(dp121
g11
g24
sg13
VBitstream Vera Sans
p122
sg15
I700
sg16
g12
sg17
g12
sg18
V/usr/local/lib/python2.7/dist-packages/matplotlib/mpl-data/fonts/ttf/VeraBI.ttf
p123
sg20
g21
sbag1
(g8
g3
NtRp124
(dp125
g11
g12
sg13
VBitstream Vera Serif
p126
sg15
I700
sg16
g12
sg17
g12
sg18
V/usr/local/lib/python2.7/dist-packages/matplotlib/mpl-data/fonts/ttf/VeraSeBd.ttf
p127
sg20
g21
sbag1
(g8
g3
NtRp128
(dp129
g11
g12
sg13
VSTIXGeneral
p130
sg15
I400
sg16
g12
sg17
g12
sg18
V/usr/local/lib/python2.7/dist-packages/matplotlib/mpl-data/fonts/ttf/STIXGeneral.ttf
p131
sg20
g21
sbag1
(g8
g3
NtRp132
(dp133
g11
g12
sg13
Vcmr10
p134
sg15
I400
sg16
g12
sg17
g12
sg18
V/usr/local/lib/python2.7/dist-packages/matplotlib/mpl-data/fonts/ttf/cmr10.ttf
p135
sg20
g21
sbag1
(g8
g3
NtRp136
(dp137
g11
g12
sg13
Vcmex10
p138
sg15
I400
sg16
g12
sg17
g12
sg18
V/usr/local/lib/python2.7/dist-packages/matplotlib/mpl-data/fonts/ttf/cmex10.ttf
p139
sg20
g21
sbag1
(g8
g3
NtRp140
(dp141
g11
g24
sg13
VBitstream Vera Sans Mono
p142
sg15
I400
sg16
g12
sg17
g12
sg18
V/usr/local/lib/python2.7/dist-packages/matplotlib/mpl-data/fonts/ttf/VeraMoIt.ttf
p143
sg20
g21
sbag1
(g8
g3
NtRp144
(dp145
g11
g12
sg13
VSTIXSizeOneSym
p146
sg15
I400
sg16
g12
sg17
g12
sg18
V/usr/local/lib/python2.7/dist-packages/matplotlib/mpl-data/fonts/ttf/STIXSizOneSymReg.ttf
p147
sg20
g21
sbag1
(g8
g3
NtRp148
(dp149
g11
g12
sg13
Vcmtt10
p150
sg15
I400
sg16
g12
sg17
g12
sg18
V/usr/local/lib/python2.7/dist-packages/matplotlib/mpl-data/fonts/ttf/cmtt10.ttf
p151
sg20
g21
sbag1
(g8
g3
NtRp152
(dp153
g11
g53
sg13
VSTIXGeneral
p154
sg15
I400
sg16
g12
sg17
g12
sg18
V/usr/local/lib/python2.7/dist-packages/matplotlib/mpl-data/fonts/ttf/STIXGeneralItalic.ttf
p155
sg20
g21
sbag1
(g8
g3
NtRp156
(dp157
g11
g12
sg13
VLato
p158
sg15
I400
sg16
g12
sg17
g12
sg18
V/usr/share/fonts/truetype/lato/Lato-Hairline.ttf
p159
sg20
g21
sbag1
(g8
g3
NtRp160
(dp161
g11
g12
sg13
VSTIXIntegralsUp
p162
sg15
I400
sg16
g12
sg17
g12
sg18
V/usr/share/fonts/opentype/stix/STIXIntegralsUp-Regular.otf
p163
sg20
g21
sbag1
(g8
g3
NtRp164
(dp165
g11
g53
sg13
VRoboto Condensed
p166
sg15
I200
sg16
Vcondensed
p167
sg17
g12
sg18
V/usr/share/fonts/truetype/roboto/hinted/RobotoCondensed-LightItalic.ttf
p168
sg20
g21
sbag1
(g8
g3
NtRp169
(dp170
g11
g12
sg13
VKacstTitle
p171
sg15
I400
sg16
g12
sg17
g12
sg18
V/usr/share/fonts/truetype/kacst/KacstTitle.ttf
p172
sg20
g21
sbag1
(g8
g3
NtRp173
(dp174
g11
g53
sg13
VLatin Modern Roman
p175
sg15
I500
sg16
g12
sg17
g12
sg18
V/usr/share/texmf/fonts/opentype/public/lm/lmroman8-italic.otf
p176
sg20
g21
sbag1
(g8
g3
NtRp177
(dp178
g11
g53
sg13
VLaksaman
p179
sg15
I700
sg16
g12
sg17
g12
sg18
V/usr/share/fonts/truetype/tlwg/Laksaman-BoldItalic.ttf
p180
sg20
g21
sbag1
(g8
g3
NtRp181
(dp182
g11
g12
sg13
VGentium
p183
sg15
I400
sg16
g12
sg17
g12
sg18
V/usr/share/fonts/truetype/gentium/Gentium-R.ttf
p184
sg20
g21
sbag1
(g8
g3
NtRp185
(dp186
g11
g12
sg13
VUme Mincho S3
p187
sg15
I400
sg16
g12
sg17
g12
sg18
V/usr/share/fonts/truetype/horai-umefont/ume-tms3.ttf
p188
sg20
g21
sbag1
(g8
g3
NtRp189
(dp190
g11
g12
sg13
VGillius ADF Cd
p191
sg15
I400
sg16
g12
sg17
g12
sg18
V/usr/share/fonts/truetype/adf/GilliusADFCd-Regular.otf
p192
sg20
g21
sbag1
(g8
g3
NtRp193
(dp194
g11
g12
sg13
VKacstScreen
p195
sg15
I400
sg16
g12
sg17
g12
sg18
V/usr/share/fonts/truetype/kacst/KacstScreen.ttf
p196
sg20
g21
sbag1
(g8
g3
NtRp197
(dp198
g11
g12
sg13
VMathJax_Math
p199
sg15
I400
sg16
g12
sg17
g12
sg18
V/usr/share/fonts/opentype/mathjax/MathJax_Math-Regular.otf
p200
sg20
g21
sbag1
(g8
g3
NtRp201
(dp202
g11
g24
sg13
VLoma
p203
sg15
I400
sg16
g12
sg17
g12
sg18
V/usr/share/fonts/truetype/tlwg/Loma-Oblique.ttf
p204
sg20
g21
sbag1
(g8
g3
NtRp205
(dp206
g11
g24
sg13
VNorasi
p207
sg15
I400
sg16
g12
sg17
g12
sg18
V/usr/share/fonts/truetype/tlwg/Norasi-Oblique.ttf
p208
sg20
g21
sbag1
(g8
g3
NtRp209
(dp210
g11
g53
sg13
VGentium Basic
p211
sg15
I400
sg16
g12
sg17
g12
sg18
V/usr/share/fonts/truetype/gentium-basic/GenBasI.ttf
p212
sg20
g21
sbag1
(g8
g3
NtRp213
(dp214
g11
g12
sg13
VEB Garamond
p215
sg15
I400
sg16
g12
sg17
g12
sg18
V/usr/share/fonts/opentype/ebgaramond/EBGaramond08-Regular.otf
p216
sg20
g21
sbag1
(g8
g3
NtRp217
(dp218
g11
g53
sg13
VLatin Modern Roman
p219
sg15
I500
sg16
g12
sg17
g12
sg18
V/usr/share/texmf/fonts/opentype/public/lm/lmroman10-italic.otf
p220
sg20
g21
sbag1
(g8
g3
NtRp221
(dp222
g11
g12
sg13
VJunicode
p223
sg15
I400
sg16
g12
sg17
g12
sg18
V/usr/share/fonts/truetype/junicode/Junicode.ttf
p224
sg20
g21
sbag1
(g8
g3
NtRp225
(dp226
g11
g53
sg13
VGentium Book Basic
p227
sg15
I700
sg16
g12
sg17
g12
sg18
V/usr/share/fonts/truetype/gentium-basic/GenBkBasBI.ttf
p228
sg20
g21
sbag1
(g8
g3
NtRp229
(dp230
g11
g12
sg13
VTakaoPGothic
p231
sg15
I400
sg16
g12
sg17
g12
sg18
V/usr/share/fonts/truetype/fonts-japanese-gothic.ttf
p232
sg20
g21
sbag1
(g8
g3
NtRp233
(dp234
g11
g12
sg13
VGentium Book Basic
p235
sg15
I400
sg16
g12
sg17
g12
sg18
V/usr/share/fonts/truetype/gentium-basic/GenBkBasR.ttf
p236
sg20
g21
sbag1
(g8
g3
NtRp237
(dp238
g11
g12
sg13
VDejaVu Serif
p239
sg15
I400
sg16
g12
sg17
g12
sg18
V/usr/share/fonts/truetype/dejavu/DejaVuSerif.ttf
p240
sg20
g21
sbag1
(g8
g3
NtRp241
(dp242
g11
g12
sg13
VLinux Libertine O
p243
sg15
I700
sg16
g12
sg17
g12
sg18
V/usr/share/fonts/opentype/linux-libertine/LinLibertine_RZ.otf
p244
sg20
g21
sbag1
(g8
g3
NtRp245
(dp246
g11
g12
sg13
VAsana Math
p247
sg15
I400
sg16
g12
sg17
g12
sg18
V/usr/share/fonts/truetype/asana-math/Asana-Math.otf
p248
sg20
g21
sbag1
(g8
g3
NtRp249
(dp250
g11
g53
sg13
VMathJax_Main
p251
sg15
I400
sg16
g12
sg17
g12
sg18
V/usr/share/fonts/opentype/mathjax/MathJax_Main-Italic.otf
p252
sg20
g21
sbag1
(g8
g3
NtRp253
(dp254
g11
g12
sg13
VAccanthis ADF Std No2
p255
sg15
I700
sg16
g12
sg17
g12
sg18
V/usr/share/fonts/truetype/adf/AccanthisADFStdNo2-Bold.otf
p256
sg20
g21
sbag1
(g8
g3
NtRp257
(dp258
g11
g53
sg13
VGFS Didot
p259
sg15
I700
sg16
g12
sg17
g12
sg18
V/usr/share/fonts/truetype/didot/GFSDidotBoldItalic.otf
p260
sg20
g21
sbag1
(g8
g3
NtRp261
(dp262
g11
g53
sg13
VTeX Gyre Termes
p263
sg15
I700
sg16
g12
sg17
g12
sg18
V/usr/share/texmf/fonts/opentype/public/tex-gyre/texgyretermes-bolditalic.otf
p264
sg20
g21
sbag1
(g8
g3
NtRp265
(dp266
g11
g12
sg13
VLatin Modern Roman
p267
sg15
I700
sg16
g12
sg17
g12
sg18
V/usr/share/texmf/fonts/opentype/public/lm/lmroman8-bold.otf
p268
sg20
g21
sbag1
(g8
g3
NtRp269
(dp270
g11
g53
sg13
VTeX Gyre Pagella
p271
sg15
I400
sg16
g12
sg17
g12
sg18
V/usr/share/texmf/fonts/opentype/public/tex-gyre/texgyrepagella-italic.otf
p272
sg20
g21
sbag1
(g8
g3
NtRp273
(dp274
g11
g53
sg13
VLato
p275
sg15
I500
sg16
g12
sg17
g12
sg18
V/usr/share/fonts/truetype/lato/Lato-MediumItalic.ttf
p276
sg20
g21
sbag1
(g8
g3
NtRp277
(dp278
g11
g12
sg13
VTeX Gyre Schola Math
p279
sg15
I400
sg16
g12
sg17
g12
sg18
V/usr/share/texmf/fonts/opentype/public/tex-gyre-math/texgyreschola-math.otf
p280
sg20
g21
sbag1
(g8
g3
NtRp281
(dp282
g11
g12
sg13
VLaksaman
p283
sg15
I400
sg16
g12
sg17
g12
sg18
V/usr/share/fonts/truetype/tlwg/Laksaman.ttf
p284
sg20
g21
sbag1
(g8
g3
NtRp285
(dp286
g11
g12
sg13
VDejaVu Serif
p287
sg15
I700
sg16
g167
sg17
g12
sg18
V/usr/share/fonts/truetype/dejavu/DejaVuSerifCondensed-Bold.ttf
p288
sg20
g21
sbag1
(g8
g3
NtRp289
(dp290
g11
g53
sg13
VEB Garamond
p291
sg15
I400
sg16
g12
sg17
g12
sg18
V/usr/share/fonts/opentype/ebgaramond/EBGaramond12-Italic.otf
p292
sg20
g21
sbag1
(g8
g3
NtRp293
(dp294
g11
g12
sg13
VLinux Biolinum O
p295
sg15
I700
sg16
g12
sg17
g12
sg18
V/usr/share/fonts/opentype/linux-libertine/LinBiolinum_RB.otf
p296
sg20
g21
sbag1
(g8
g3
NtRp297
(dp298
g11
g12
sg13
VGillius ADF No2 Cd
p299
sg15
I700
sg16
g12
sg17
g12
sg18
V/usr/share/fonts/truetype/adf/GilliusADFNo2Cd-Bold.otf
p300
sg20
g21
sbag1
(g8
g3
NtRp301
(dp302
g11
g12
sg13
VLatin Modern Mono Caps
p303
sg15
I400
sg16
g12
sg17
g12
sg18
V/usr/share/texmf/fonts/opentype/public/lm/lmmonocaps10-regular.otf
p304
sg20
g21
sbag1
(g8
g3
NtRp305
(dp306
g11
g12
sg13
VLato
p307
sg15
I500
sg16
g12
sg17
g12
sg18
V/usr/share/fonts/truetype/lato/Lato-Medium.ttf
p308
sg20
g21
sbag1
(g8
g3
NtRp309
(dp310
g11
g12
sg13
VLatin Modern Roman
p311
sg15
I400
sg16
g12
sg17
g12
sg18
V/usr/share/texmf/fonts/opentype/public/lm/lmroman12-regular.otf
p312
sg20
g21
sbag1
(g8
g3
NtRp313
(dp314
g11
g12
sg13
VTlwg Typist
p315
sg15
I400
sg16
g12
sg17
g12
sg18
V/usr/share/fonts/truetype/tlwg/TlwgTypist.ttf
p316
sg20
g21
sbag1
(g8
g3
NtRp317
(dp318
g11
g12
sg13
VNanumGothic
p319
sg15
I400
sg16
g12
sg17
g12
sg18
V/usr/share/fonts/truetype/nanum/NanumGothic.ttf
p320
sg20
g21
sbag1
(g8
g3
NtRp321
(dp322
g11
g53
sg13
VAmiri
p323
sg15
I400
sg16
g12
sg17
g12
sg18
V/usr/share/fonts/opentype/fonts-hosny-amiri/amiri-slanted.ttf
p324
sg20
g21
sbag1
(g8
g3
NtRp325
(dp326
g11
g12
sg13
VGFS Artemisia
p327
sg15
I700
sg16
g12
sg17
g12
sg18
V/usr/share/fonts/truetype/artemisia/GFSArtemisiaBold.otf
p328
sg20
g21
sbag1
(g8
g3
NtRp329
(dp330
g11
g12
sg13
VGentium Basic
p331
sg15
I400
sg16
g12
sg17
g12
sg18
V/usr/share/fonts/truetype/gentium-basic/GenBasR.ttf
p332
sg20
g21
sbag1
(g8
g3
NtRp333
(dp334
g11
g12
sg13
VComfortaa
p335
sg15
I200
sg16
g12
sg17
g12
sg18
V/usr/share/fonts/truetype/comfortaa/Comfortaa-Light.ttf
p336
sg20
g21
sbag1
(g8
g3
NtRp337
(dp338
g11
g12
sg13
VSaab
p339
sg15
I400
sg16
g12
sg17
g12
sg18
V/usr/share/fonts/truetype/fonts-guru-extra/Saab.ttf
p340
sg20
g21
sbag1
(g8
g3
NtRp341
(dp342
g11
g24
sg13
VCMU Typewriter Text
p343
sg15
I200
sg16
g12
sg17
g12
sg18
V/usr/share/fonts/truetype/cmu/cmunbto.ttf
p344
sg20
g21
sbag1
(g8
g3
NtRp345
(dp346
g11
g24
sg13
VCMU Typewriter Text
p347
sg15
I400
sg16
g12
sg17
g12
sg18
V/usr/share/fonts/truetype/cmu/cmunst.ttf
p348
sg20
g21
sbag1
(g8
g3
NtRp349
(dp350
g11
g12
sg13
VSTIXIntegralsUp
p351
sg15
I700
sg16
g12
sg17
g12
sg18
V/usr/share/fonts/opentype/stix/STIXIntegralsUp-Bold.otf
p352
sg20
g21
sbag1
(g8
g3
NtRp353
(dp354
g11
g12
sg13
VLatin Modern Roman
p355
sg15
I700
sg16
g12
sg17
g12
sg18
V/usr/share/texmf/fonts/opentype/public/lm/lmroman12-bold.otf
p356
sg20
g21
sbag1
(g8
g3
NtRp357
(dp358
g11
g12
sg13
VUnBatang
p359
sg15
I400
sg16
g12
sg17
g12
sg18
V/usr/share/fonts/truetype/unfonts-core/UnBatang.ttf
p360
sg20
g21
sbag1
(g8
g3
NtRp361
(dp362
g11
g12
sg13
VTeX Gyre Cursor
p363
sg15
I400
sg16
g12
sg17
g12
sg18
V/usr/share/texmf/fonts/opentype/public/tex-gyre/texgyrecursor-regular.otf
p364
sg20
g21
sbag1
(g8
g3
NtRp365
(dp366
g11
g12
sg13
VFontAwesome
p367
sg15
I400
sg16
g12
sg17
g12
sg18
V/usr/share/fonts/truetype/font-awesome/fontawesome-webfont.ttf
p368
sg20
g21
sbag1
(g8
g3
NtRp369
(dp370
g11
g12
sg13
VCabin
p371
sg15
I500
sg16
g12
sg17
g12
sg18
V/usr/share/fonts/opentype/cabin/Cabin-Medium.otf
p372
sg20
g21
sbag1
(g8
g3
NtRp373
(dp374
g11
g12
sg13
Vmsam10
p375
sg15
I400
sg16
g12
sg17
g12
sg18
V/usr/share/fonts/truetype/lyx/msam10.ttf
p376
sg20
g21
sbag1
(g8
g3
NtRp377
(dp378
g11
g12
sg13
VUbuntu Mono
p379
sg15
I400
sg16
g12
sg17
g12
sg18
V/usr/share/fonts/truetype/ubuntu-font-family/UbuntuMono-R.ttf
p380
sg20
g21
sbag1
(g8
g3
NtRp381
(dp382
g11
g12
sg13
VUnDinaru
p383
sg15
I400
sg16
g12
sg17
g12
sg18
V/usr/share/fonts/truetype/unfonts-core/UnDinaru.ttf
p384
sg20
g21
sbag1
(g8
g3
NtRp385
(dp386
g11
g53
sg13
VCabin
p387
sg15
I400
sg16
g12
sg17
g12
sg18
V/usr/share/fonts/opentype/cabin/Cabin-Italic.otf
p388
sg20
g21
sbag1
(g8
g3
NtRp389
(dp390
g11
g12
sg13
VLatin Modern Roman
p391
sg15
I400
sg16
g12
sg17
g12
sg18
V/usr/share/texmf/fonts/opentype/public/lm/lmroman5-regular.otf
p392
sg20
g21
sbag1
(g8
g3
NtRp393
(dp394
g11
g12
sg13
VLatin Modern Roman Slanted
p395
sg15
I400
sg16
g12
sg17
g12
sg18
V/usr/share/texmf/fonts/opentype/public/lm/lmromanslant12-regular.otf
p396
sg20
g21
sbag1
(g8
g3
NtRp397
(dp398
g11
g12
sg13
VUme Gothic C5
p399
sg15
I400
sg16
g12
sg17
g12
sg18
V/usr/share/fonts/truetype/horai-umefont/ume-tgc5.ttf
p400
sg20
g21
sbag1
(g8
g3
NtRp401
(dp402
g11
g12
sg13
VFreeSerif
p403
sg15
I700
sg16
g12
sg17
g12
sg18
V/usr/share/fonts/opentype/freefont/FreeSerifBold.otf
p404
sg20
g21
sbag1
(g8
g3
NtRp405
(dp406
g11
g12
sg13
VUnGraphic
p407
sg15
I700
sg16
g12
sg17
g12
sg18
V/usr/share/fonts/truetype/unfonts-core/UnGraphicBold.ttf
p408
sg20
g21
sbag1
(g8
g3
NtRp409
(dp410
g11
g53
sg13
VLatin Modern Mono
p411
sg15
I400
sg16
g12
sg17
g12
sg18
V/usr/share/texmf/fonts/opentype/public/lm/lmmono10-italic.otf
p412
sg20
g21
sbag1
(g8
g3
NtRp413
(dp414
g11
g12
sg13
VFreeSans
p415
sg15
I400
sg16
g12
sg17
g12
sg18
V/usr/share/fonts/opentype/freefont/FreeSans.otf
p416
sg20
g21
sbag1
(g8
g3
NtRp417
(dp418
g11
g12
sg13
VKacstNaskh
p419
sg15
I400
sg16
g12
sg17
g12
sg18
V/usr/share/fonts/truetype/kacst/KacstNaskh.ttf
p420
sg20
g21
sbag1
(g8
g3
NtRp421
(dp422
g11
g53
sg13
VKinnari
p423
sg15
I700
sg16
g12
sg17
g12
sg18
V/usr/share/fonts/truetype/tlwg/Kinnari-BoldItalic.ttf
p424
sg20
g21
sbag1
(g8
g3
NtRp425
(dp426
g11
g12
sg13
VSawasdee
p427
sg15
I400
sg16
g12
sg17
g12
sg18
V/usr/share/fonts/truetype/tlwg/Sawasdee.ttf
p428
sg20
g21
sbag1
(g8
g3
NtRp429
(dp430
g11
g12
sg13
VSTIXSizeThreeSym
p431
sg15
I400
sg16
g12
sg17
g12
sg18
V/usr/share/fonts/opentype/stix/STIXSizeThreeSym-Regular.otf
p432
sg20
g21
sbag1
(g8
g3
NtRp433
(dp434
g11
g24
sg13
VDejaVu Sans Mono
p435
sg15
I700
sg16
g12
sg17
g12
sg18
V/usr/share/fonts/truetype/dejavu/DejaVuSansMono-BoldOblique.ttf
p436
sg20
g21
sbag1
(g8
g3
NtRp437
(dp438
g11
g12
sg13
VUnDinaru
p439
sg15
I700
sg16
g12
sg17
g12
sg18
V/usr/share/fonts/truetype/unfonts-core/UnDinaruBold.ttf
p440
sg20
g21
sbag1
(g8
g3
NtRp441
(dp442
g11
g12
sg13
VFreeSans
p443
sg15
I700
sg16
g12
sg17
g12
sg18
V/usr/share/fonts/truetype/freefont/FreeSansBold.ttf
p444
sg20
g21
sbag1
(g8
g3
NtRp445
(dp446
g11
g12
sg13
VTeX Gyre Heros Cn
p447
sg15
I400
sg16
g12
sg17
g12
sg18
V/usr/share/texmf/fonts/opentype/public/tex-gyre/texgyreheroscn-regular.otf
p448
sg20
g21
sbag1
(g8
g3
NtRp449
(dp450
g11
g12
sg13
VLatin Modern Mono
p451
sg15
I400
sg16
g12
sg17
g12
sg18
V/usr/share/texmf/fonts/opentype/public/lm/lmmono8-regular.otf
p452
sg20
g21
sbag1
(g8
g3
NtRp453
(dp454
g11
g12
sg13
VLatin Modern Sans
p455
sg15
I700
sg16
g12
sg17
g12
sg18
V/usr/share/texmf/fonts/opentype/public/lm/lmsans10-bold.otf
p456
sg20
g21
sbag1
(g8
g3
NtRp457
(dp458
g11
g12
sg13
VRoboto Condensed
p459
sg15
I400
sg16
g167
sg17
g12
sg18
V/usr/share/fonts/truetype/roboto/hinted/RobotoCondensed-Regular.ttf
p460
sg20
g21
sbag1
(g8
g3
NtRp461
(dp462
g11
g12
sg13
VTlwg Typist
p463
sg15
I700
sg16
g12
sg17
g12
sg18
V/usr/share/fonts/truetype/tlwg/TlwgTypist-Bold.ttf
p464
sg20
g21
sbag1
(g8
g3
NtRp465
(dp466
g11
g24
sg13
VLatin Modern Mono Prop
p467
sg15
I400
sg16
g12
sg17
g12
sg18
V/usr/share/texmf/fonts/opentype/public/lm/lmmonoprop10-oblique.otf
p468
sg20
g21
sbag1
(g8
g3
NtRp469
(dp470
g11
g12
sg13
VKacstPoster
p471
sg15
I400
sg16
g12
sg17
g12
sg18
V/usr/share/fonts/truetype/kacst/KacstPoster.ttf
p472
sg20
g21
sbag1
(g8
g3
NtRp473
(dp474
g11
g12
sg13
VPurisa
p475
sg15
I400
sg16
g12
sg17
g12
sg18
V/usr/share/fonts/truetype/tlwg/Purisa.ttf
p476
sg20
g21
sbag1
(g8
g3
NtRp477
(dp478
g11
g12
sg13
VSTIXSizeOneSym
p479
sg15
I700
sg16
g12
sg17
g12
sg18
V/usr/share/fonts/opentype/stix/STIXSizeOneSym-Bold.otf
p480
sg20
g21
sbag1
(g8
g3
NtRp481
(dp482
g11
g53
sg13
VAccanthis ADF Std No3
p483
sg15
I400
sg16
g12
sg17
g12
sg18
V/usr/share/fonts/truetype/adf/AccanthisADFStdNo3-Italic.otf
p484
sg20
g21
sbag1
(g8
g3
NtRp485
(dp486
g11
g53
sg13
VGentium
p487
sg15
I400
sg16
g12
sg17
g12
sg18
V/usr/share/fonts/truetype/gentium/Gentium-I.ttf
p488
sg20
g21
sbag1
(g8
g3
NtRp489
(dp490
g11
g12
sg13
VUniversalis ADF Cd Std
p491
sg15
I400
sg16
g12
sg17
g12
sg18
V/usr/share/fonts/truetype/adf/UniversalisADFCdStd-Regular.otf
p492
sg20
g21
sbag1
(g8
g3
NtRp493
(dp494
g11
g53
sg13
VUbuntu
p495
sg15
I200
sg16
g12
sg17
g12
sg18
V/usr/share/fonts/truetype/ubuntu-font-family/Ubuntu-LI.ttf
p496
sg20
g21
sbag1
(g8
g3
NtRp497
(dp498
g11
g12
sg13
VFreeSerif
p499
sg15
I400
sg16
g12
sg17
g12
sg18
V/usr/share/fonts/opentype/freefont/FreeSerif.otf
p500
sg20
g21
sbag1
(g8
g3
NtRp501
(dp502
g11
g12
sg13
VGFS Didot
p503
sg15
I400
sg16
g12
sg17
g12
sg18
V/usr/share/fonts/truetype/didot/GFSDidot.otf
p504
sg20
g21
sbag1
(g8
g3
NtRp505
(dp506
g11
g24
sg13
VUmpush
p507
sg15
I400
sg16
g12
sg17
g12
sg18
V/usr/share/fonts/truetype/tlwg/Umpush-Oblique.ttf
p508
sg20
g21
sbag1
(g8
g3
NtRp509
(dp510
g11
g12
sg13
VNanumGothic
p511
sg15
I700
sg16
g12
sg17
g12
sg18
V/usr/share/fonts/truetype/nanum/NanumGothicBold.ttf
p512
sg20
g21
sbag1
(g8
g3
NtRp513
(dp514
g11
g53
sg13
VLiberation Mono
p515
sg15
I700
sg16
g12
sg17
g12
sg18
V/usr/share/fonts/truetype/liberation/LiberationMono-BoldItalic.ttf
p516
sg20
g21
sbag1
(g8
g3
NtRp517
(dp518
g11
g53
sg13
VCMU Typewriter Text
p519
sg15
I400
sg16
g12
sg17
g12
sg18
V/usr/share/fonts/truetype/cmu/cmunit.ttf
p520
sg20
g21
sbag1
(g8
g3
NtRp521
(dp522
g11
g12
sg13
VEB Garamond
p523
sg15
I400
sg16
g12
sg17
g12
sg18
V/usr/share/fonts/truetype/ebgaramond/EBGaramond12-Regular.ttf
p524
sg20
g21
sbag1
(g8
g3
NtRp525
(dp526
g11
g53
sg13
VAccanthis ADF Std No2
p527
sg15
I400
sg16
g12
sg17
g12
sg18
V/usr/share/fonts/truetype/adf/AccanthisADFStdNo2-Italic.otf
p528
sg20
g21
sbag1
(g8
g3
NtRp529
(dp530
g11
g12
sg13
VUbuntu Mono
p531
sg15
I700
sg16
g12
sg17
g12
sg18
V/usr/share/fonts/truetype/ubuntu-font-family/UbuntuMono-B.ttf
p532
sg20
g21
sbag1
(g8
g3
NtRp533
(dp534
g11
g12
sg13
VIPAGothic
p535
sg15
I400
sg16
g12
sg17
g12
sg18
V/usr/share/fonts/opentype/ipafont-gothic/ipag.ttf
p536
sg20
g21
sbag1
(g8
g3
NtRp537
(dp538
g11
g12
sg13
VOpenSymbol
p539
sg15
I400
sg16
g12
sg17
g12
sg18
V/usr/share/fonts/truetype/openoffice/opens___.ttf
p540
sg20
g21
sbag1
(g8
g3
NtRp541
(dp542
g11
g12
sg13
VCabin
p543
sg15
I700
sg16
g12
sg17
g12
sg18
V/usr/share/fonts/opentype/cabin/Cabin-Bold.otf
p544
sg20
g21
sbag1
(g8
g3
NtRp545
(dp546
g11
g53
sg13
VNorasi
p547
sg15
I400
sg16
g12
sg17
g12
sg18
V/usr/share/fonts/truetype/tlwg/Norasi-Italic.ttf
p548
sg20
g21
sbag1
(g8
g3
NtRp549
(dp550
g11
g12
sg13
VSTIXSizeTwoSym
p551
sg15
I700
sg16
g12
sg17
g12
sg18
V/usr/share/fonts/opentype/stix/STIXSizeTwoSym-Bold.otf
p552
sg20
g21
sbag1
(g8
g3
NtRp553
(dp554
g11
g12
sg13
VKhmer OS System
p555
sg15
I400
sg16
g12
sg17
g12
sg18
V/usr/share/fonts/truetype/ttf-khmeros-core/KhmerOSsys.ttf
p556
sg20
g21
sbag1
(g8
g3
NtRp557
(dp558
g11
g12
sg13
VLatin Modern Mono Prop Light
p559
sg15
I700
sg16
g12
sg17
g12
sg18
V/usr/share/texmf/fonts/opentype/public/lm/lmmonoproplt10-bold.otf
p560
sg20
g21
sbag1
(g8
g3
NtRp561
(dp562
g11
g12
sg13
VNorasi
p563
sg15
I400
sg16
g12
sg17
g12
sg18
V/usr/share/fonts/truetype/tlwg/Norasi.ttf
p564
sg20
g21
sbag1
(g8
g3
NtRp565
(dp566
g11
g53
sg13
VLobster Two
p567
sg15
I400
sg16
g12
sg17
g12
sg18
V/usr/share/fonts/opentype/lobstertwo/LobsterTwo-Italic.otf
p568
sg20
g21
sbag1
(g8
g3
NtRp569
(dp570
g11
g24
sg13
VCMU Sans Serif
p571
sg15
I400
sg16
g12
sg17
g12
sg18
V/usr/share/fonts/truetype/cmu/cmunsi.ttf
p572
sg20
g21
sbag1
(g8
g3
NtRp573
(dp574
g11
g53
sg13
VLatin Modern Roman
p575
sg15
I500
sg16
g12
sg17
g12
sg18
V/usr/share/texmf/fonts/opentype/public/lm/lmroman12-italic.otf
p576
sg20
g21
sbag1
(g8
g3
NtRp577
(dp578
g11
g12
sg13
VTeX Gyre Bonum Math
p579
sg15
I400
sg16
g12
sg17
g12
sg18
V/usr/share/texmf/fonts/opentype/public/tex-gyre-math/texgyrebonum-math.otf
p580
sg20
g21
sbag1
(g8
g3
NtRp581
(dp582
g11
g12
sg13
VLatin Modern Sans
p583
sg15
I400
sg16
g12
sg17
g12
sg18
V/usr/share/texmf/fonts/opentype/public/lm/lmsans12-regular.otf
p584
sg20
g21
sbag1
(g8
g3
NtRp585
(dp586
g11
g12
sg13
VDejaVu Sans
p587
sg15
I700
sg16
g12
sg17
g12
sg18
V/usr/share/fonts/truetype/dejavu/DejaVuSans-Bold.ttf
p588
sg20
g21
sbag1
(g8
g3
NtRp589
(dp590
g11
g53
sg13
VUbuntu
p591
sg15
I400
sg16
g12
sg17
g12
sg18
V/usr/share/fonts/truetype/ubuntu-font-family/Ubuntu-RI.ttf
p592
sg20
g21
sbag1
(g8
g3
NtRp593
(dp594
g11
g12
sg13
VNanumBarunGothic
p595
sg15
I400
sg16
g12
sg17
g12
sg18
V/usr/share/fonts/truetype/nanum/NanumBarunGothic.ttf
p596
sg20
g21
sbag1
(g8
g3
NtRp597
(dp598
g11
g12
sg13
VRoboto
p599
sg15
I900
sg16
g12
sg17
g12
sg18
V/usr/share/fonts/truetype/roboto/hinted/Roboto-Black.ttf
p600
sg20
g21
sbag1
(g8
g3
NtRp601
(dp602
g11
g53
sg13
VLatin Modern Roman
p603
sg15
I500
sg16
g12
sg17
g12
sg18
V/usr/share/texmf/fonts/opentype/public/lm/lmroman7-italic.otf
p604
sg20
g21
sbag1
(g8
g3
NtRp605
(dp606
g11
g12
sg13
VUnDinaru
p607
sg15
I200
sg16
g12
sg17
g12
sg18
V/usr/share/fonts/truetype/unfonts-core/UnDinaruLight.ttf
p608
sg20
g21
sbag1
(g8
g3
NtRp609
(dp610
g11
g53
sg13
VLatin Modern Roman
p611
sg15
I500
sg16
g12
sg17
g12
sg18
V/usr/share/texmf/fonts/opentype/public/lm/lmroman9-italic.otf
p612
sg20
g21
sbag1
(g8
g3
NtRp613
(dp614
g11
g12
sg13
VMathJax_WinChrome
p615
sg15
I400
sg16
g12
sg17
g12
sg18
V/usr/share/fonts/opentype/mathjax/MathJax_WinChrome-Regular.otf
p616
sg20
g21
sbag1
(g8
g3
NtRp617
(dp618
g11
g12
sg13
VLiberation Serif
p619
sg15
I400
sg16
g12
sg17
g12
sg18
V/usr/share/fonts/truetype/liberation/LiberationSerif-Regular.ttf
p620
sg20
g21
sbag1
(g8
g3
NtRp621
(dp622
g11
g12
sg13
VSTIXIntegralsD
p623
sg15
I400
sg16
g12
sg17
g12
sg18
V/usr/share/fonts/opentype/stix/STIXIntegralsD-Regular.otf
p624
sg20
g21
sbag1
(g8
g3
NtRp625
(dp626
g11
g12
sg13
VGFS Solomos
p627
sg15
I400
sg16
g12
sg17
g12
sg18
V/usr/share/fonts/truetype/solomos/GFSSolomos.otf
p628
sg20
g21
sbag1
(g8
g3
NtRp629
(dp630
g11
g12
sg13
VSTIX
p631
sg15
I400
sg16
g12
sg17
g12
sg18
V/usr/share/fonts/opentype/stix-word/STIX-Regular.otf
p632
sg20
g21
sbag1
(g8
g3
NtRp633
(dp634
g11
g53
sg13
VLobster Two
p635
sg15
I700
sg16
g12
sg17
g12
sg18
V/usr/share/fonts/opentype/lobstertwo/LobsterTwo-BoldItalic.otf
p636
sg20
g21
sbag1
(g8
g3
NtRp637
(dp638
g11
g12
sg13
VKinnari
p639
sg15
I400
sg16
g12
sg17
g12
sg18
V/usr/share/fonts/truetype/tlwg/Kinnari.ttf
p640
sg20
g21
sbag1
(g8
g3
NtRp641
(dp642
g11
g12
sg13
VEB Garamond Initials Fill1
p643
sg15
I400
sg16
g12
sg17
g12
sg18
V/usr/share/fonts/opentype/ebgaramond/EBGaramond-InitialsF1.otf
p644
sg20
g21
sbag1
(g8
g3
NtRp645
(dp646
g11
g53
sg13
VUbuntu Mono
p647
sg15
I700
sg16
g12
sg17
g12
sg18
V/usr/share/fonts/truetype/ubuntu-font-family/UbuntuMono-BI.ttf
p648
sg20
g21
sbag1
(g8
g3
NtRp649
(dp650
g11
g12
sg13
VJunicode
p651
sg15
I700
sg16
g12
sg17
g12
sg18
V/usr/share/fonts/truetype/junicode/Junicode-Bold.ttf
p652
sg20
g21
sbag1
(g8
g3
NtRp653
(dp654
g11
g12
sg13
VTeX Gyre Pagella
p655
sg15
I400
sg16
g12
sg17
g12
sg18
V/usr/share/texmf/fonts/opentype/public/tex-gyre/texgyrepagella-regular.otf
p656
sg20
g21
sbag1
(g8
g3
NtRp657
(dp658
g11
g12
sg13
VUnDotum
p659
sg15
I400
sg16
g12
sg17
g12
sg18
V/usr/share/fonts/truetype/unfonts-core/UnDotum.ttf
p660
sg20
g21
sbag1
(g8
g3
NtRp661
(dp662
g11
g12
sg13
VUme Gothic S5
p663
sg15
I400
sg16
g12
sg17
g12
sg18
V/usr/share/fonts/truetype/horai-umefont/ume-tgs5.ttf
p664
sg20
g21
sbag1
(g8
g3
NtRp665
(dp666
g11
g53
sg13
VGFS Didot
p667
sg15
I400
sg16
g12
sg17
g12
sg18
V/usr/share/fonts/truetype/didot/GFSDidotItalic.otf
p668
sg20
g21
sbag1
(g8
g3
NtRp669
(dp670
g11
g12
sg13
VGillius ADF No2 Cd
p671
sg15
I400
sg16
g12
sg17
g12
sg18
V/usr/share/fonts/truetype/adf/GilliusADFNo2Cd-Regular.otf
p672
sg20
g21
sbag1
(g8
g3
NtRp673
(dp674
g11
g12
sg13
VTlwg Mono
p675
sg15
I400
sg16
g12
sg17
g12
sg18
V/usr/share/fonts/truetype/tlwg/TlwgMono.ttf
p676
sg20
g21
sbag1
(g8
g3
NtRp677
(dp678
g11
g12
sg13
VCMU Serif
p679
sg15
I700
sg16
g12
sg17
g12
sg18
V/usr/share/fonts/truetype/cmu/cmunbx.ttf
p680
sg20
g21
sbag1
(g8
g3
NtRp681
(dp682
g11
g12
sg13
VAmiri
p683
sg15
I700
sg16
g12
sg17
g12
sg18
V/usr/share/fonts/opentype/fonts-hosny-amiri/amiri-bold.ttf
p684
sg20
g21
sbag1
(g8
g3
NtRp685
(dp686
g11
g24
sg13
VDejaVu Sans Mono
p687
sg15
I400
sg16
g12
sg17
g12
sg18
V/usr/share/fonts/truetype/dejavu/DejaVuSansMono-Oblique.ttf
p688
sg20
g21
sbag1
(g8
g3
NtRp689
(dp690
g11
g12
sg13
VEB Garamond Initials Fill1
p691
sg15
I400
sg16
g12
sg17
g12
sg18
V/usr/share/fonts/truetype/ebgaramond/EBGaramond-InitialsF1.ttf
p692
sg20
g21
sbag1
(g8
g3
NtRp693
(dp694
g11
g53
sg13
VRoboto Condensed
p695
sg15
I700
sg16
g167
sg17
g12
sg18
V/usr/share/fonts/truetype/roboto/hinted/RobotoCondensed-BoldItalic.ttf
p696
sg20
g21
sbag1
(g8
g3
NtRp697
(dp698
g11
g24
sg13
VLatin Modern Sans
p699
sg15
I400
sg16
g12
sg17
g12
sg18
V/usr/share/texmf/fonts/opentype/public/lm/lmsans17-oblique.otf
p700
sg20
g21
sbag1
(g8
g3
NtRp701
(dp702
g11
g24
sg13
VPurisa
p703
sg15
I400
sg16
g12
sg17
g12
sg18
V/usr/share/fonts/truetype/tlwg/Purisa-Oblique.ttf
p704
sg20
g21
sbag1
(g8
g3
NtRp705
(dp706
g11
g53
sg13
VKinnari
p707
sg15
I400
sg16
g12
sg17
g12
sg18
V/usr/share/fonts/truetype/tlwg/Kinnari-Italic.ttf
p708
sg20
g21
sbag1
(g8
g3
NtRp709
(dp710
g11
g12
sg13
VSTIXSizeOneSym
p711
sg15
I400
sg16
g12
sg17
g12
sg18
V/usr/share/fonts/opentype/stix/STIXSizeOneSym-Regular.otf
p712
sg20
g21
sbag1
(g8
g3
NtRp713
(dp714
g11
g12
sg13
VSTIX Math
p715
sg15
I400
sg16
g12
sg17
g12
sg18
V/usr/share/fonts/opentype/stix-word/STIXMath-Regular.otf
p716
sg20
g21
sbag1
(g8
g3
NtRp717
(dp718
g11
g12
sg13
VCMU Bright
p719
sg15
I700
sg16
g12
sg17
g12
sg18
V/usr/share/fonts/truetype/cmu/cmunbbx.ttf
p720
sg20
g21
sbag1
(g8
g3
NtRp721
(dp722
g11
g12
sg13
Vstmary10
p723
sg15
I400
sg16
g12
sg17
g12
sg18
V/usr/share/fonts/truetype/lyx/stmary10.ttf
p724
sg20
g21
sbag1
(g8
g3
NtRp725
(dp726
g11
g12
sg13
VCMU Typewriter Text
p727
sg15
I700
sg16
g12
sg17
g12
sg18
V/usr/share/fonts/truetype/cmu/cmuntb.ttf
p728
sg20
g21
sbag1
(g8
g3
NtRp729
(dp730
g11
g53
sg13
VSTIX
p731
sg15
I400
sg16
g12
sg17
g12
sg18
V/usr/share/fonts/opentype/stix-word/STIX-Italic.otf
p732
sg20
g21
sbag1
(g8
g3
NtRp733
(dp734
g11
g24
sg13
VGaruda
p735
sg15
I700
sg16
g12
sg17
g12
sg18
V/usr/share/fonts/truetype/tlwg/Garuda-BoldOblique.ttf
p736
sg20
g21
sbag1
(g8
g3
NtRp737
(dp738
g11
g12
sg13
VDejaVu Sans
p739
sg15
I700
sg16
g167
sg17
g12
sg18
V/usr/share/fonts/truetype/dejavu/DejaVuSansCondensed-Bold.ttf
p740
sg20
g21
sbag1
(g8
g3
NtRp741
(dp742
g11
g12
sg13
VIPAexGothic
p743
sg15
I400
sg16
g12
sg17
g12
sg18
V/usr/share/fonts/opentype/ipaexfont-gothic/ipaexg.ttf
p744
sg20
g21
sbag1
(g8
g3
NtRp745
(dp746
g11
g12
sg13
VMathJax_Caligraphic
p747
sg15
I700
sg16
g12
sg17
g12
sg18
V/usr/share/fonts/opentype/mathjax/MathJax_Caligraphic-Bold.otf
p748
sg20
g21
sbag1
(g8
g3
NtRp749
(dp750
g11
g53
sg13
VGFS Neohellenic
p751
sg15
I700
sg16
g12
sg17
g12
sg18
V/usr/share/fonts/truetype/neohellenic/GFSNeohellenicBoldIt.otf
p752
sg20
g21
sbag1
(g8
g3
NtRp753
(dp754
g11
g12
sg13
VUme P Gothic C4
p755
sg15
I400
sg16
g12
sg17
g12
sg18
V/usr/share/fonts/truetype/horai-umefont/ume-pgc4.ttf
p756
sg20
g21
sbag1
(g8
g3
NtRp757
(dp758
g11
g12
sg13
VTeX Gyre Heros Cn
p759
sg15
I700
sg16
g12
sg17
g12
sg18
V/usr/share/texmf/fonts/opentype/public/tex-gyre/texgyreheroscn-bold.otf
p760
sg20
g21
sbag1
(g8
g3
NtRp761
(dp762
g11
g24
sg13
VLatin Modern Mono Prop Light
p763
sg15
I700
sg16
g12
sg17
g12
sg18
V/usr/share/texmf/fonts/opentype/public/lm/lmmonoproplt10-boldoblique.otf
p764
sg20
g21
sbag1
(g8
g3
NtRp765
(dp766
g11
g12
sg13
VUniversalis ADF Cd Std
p767
sg15
I700
sg16
g12
sg17
g12
sg18
V/usr/share/fonts/truetype/adf/UniversalisADFCdStd-Bold.otf
p768
sg20
g21
sbag1
(g8
g3
NtRp769
(dp770
g11
g12
sg13
VUbuntu
p771
sg15
I500
sg16
g12
sg17
g12
sg18
V/usr/share/fonts/truetype/ubuntu-font-family/Ubuntu-M.ttf
p772
sg20
g21
sbag1
(g8
g3
NtRp773
(dp774
g11
g12
sg13
VAmiri
p775
sg15
I400
sg16
g12
sg17
g12
sg18
V/usr/share/fonts/opentype/fonts-hosny-amiri/amiri-regular.ttf
p776
sg20
g21
sbag1
(g8
g3
NtRp777
(dp778
g11
g12
sg13
VUme Gothic O5
p779
sg15
I400
sg16
g12
sg17
g12
sg18
V/usr/share/fonts/truetype/horai-umefont/ume-tgo5.ttf
p780
sg20
g21
sbag1
(g8
g3
NtRp781
(dp782
g11
g12
sg13
VGaruda
p783
sg15
I700
sg16
g12
sg17
g12
sg18
V/usr/share/fonts/truetype/tlwg/Garuda-Bold.ttf
p784
sg20
g21
sbag1
(g8
g3
NtRp785
(dp786
g11
g24
sg13
VTlwg Typist
p787
sg15
I700
sg16
g12
sg17
g12
sg18
V/usr/share/fonts/truetype/tlwg/TlwgTypist-BoldOblique.ttf
p788
sg20
g21
sbag1
(g8
g3
NtRp789
(dp790
g11
g12
sg13
VFreeSerif
p791
sg15
I400
sg16
g12
sg17
g12
sg18
V/usr/share/fonts/truetype/freefont/FreeSerif.ttf
p792
sg20
g21
sbag1
(g8
g3
NtRp793
(dp794
g11
g24
sg13
VFreeSans
p795
sg15
I400
sg16
g12
sg17
g12
sg18
V/usr/share/fonts/opentype/freefont/FreeSansOblique.otf
p796
sg20
g21
sbag1
(g8
g3
NtRp797
(dp798
g11
g53
sg13
VCabin
p799
sg15
I500
sg16
g12
sg17
g12
sg18
V/usr/share/fonts/opentype/cabin/Cabin-MediumItalic.otf
p800
sg20
g21
sbag1
(g8
g3
NtRp801
(dp802
g11
g53
sg13
VUbuntu
p803
sg15
I700
sg16
g12
sg17
g12
sg18
V/usr/share/fonts/truetype/ubuntu-font-family/Ubuntu-BI.ttf
p804
sg20
g21
sbag1
(g8
g3
NtRp805
(dp806
g11
g53
sg13
VLinux Libertine O
p807
sg15
I700
sg16
g12
sg17
g12
sg18
V/usr/share/fonts/opentype/linux-libertine/LinLibertine_RZI.otf
p808
sg20
g21
sbag1
(g8
g3
NtRp809
(dp810
g11
g12
sg13
VRoboto Condensed
p811
sg15
I200
sg16
g167
sg17
g12
sg18
V/usr/share/fonts/truetype/roboto/hinted/RobotoCondensed-Light.ttf
p812
sg20
g21
sbag1
(g8
g3
NtRp813
(dp814
g11
g12
sg13
VLiberation Sans Narrow
p815
sg15
I700
sg16
g167
sg17
g12
sg18
V/usr/share/fonts/truetype/liberation/LiberationSansNarrow-Bold.ttf
p816
sg20
g21
sbag1
(g8
g3
NtRp817
(dp818
g11
g12
sg13
VCMU Serif
p819
sg15
I500
sg16
g12
sg17
g12
sg18
V/usr/share/fonts/truetype/cmu/cmunrm.ttf
p820
sg20
g21
sbag1
(g8
g3
NtRp821
(dp822
g11
g53
sg13
VSTIXGeneral
p823
sg15
I400
sg16
g12
sg17
g12
sg18
V/usr/share/fonts/opentype/stix/STIXGeneral-Italic.otf
p824
sg20
g21
sbag1
(g8
g3
NtRp825
(dp826
g11
g12
sg13
VLinux Libertine O
p827
sg15
I400
sg16
g12
sg17
g12
sg18
V/usr/share/fonts/opentype/linux-libertine/LinLibertine_R.otf
p828
sg20
g21
sbag1
(g8
g3
NtRp829
(dp830
g11
g12
sg13
VDejaVu Sans Mono
p831
sg15
I700
sg16
g12
sg17
g12
sg18
V/usr/share/fonts/truetype/dejavu/DejaVuSansMono-Bold.ttf
p832
sg20
g21
sbag1
(g8
g3
NtRp833
(dp834
g11
g53
sg13
VCMU Serif Upright Italic
p835
sg15
I400
sg16
g12
sg17
g12
sg18
V/usr/share/fonts/truetype/cmu/cmunui.ttf
p836
sg20
g21
sbag1
(g8
g3
NtRp837
(dp838
g11
g24
sg13
VDejaVu Sans
p839
sg15
I400
sg16
g167
sg17
g12
sg18
V/usr/share/fonts/truetype/dejavu/DejaVuSansCondensed-Oblique.ttf
p840
sg20
g21
sbag1
(g8
g3
NtRp841
(dp842
g11
g24
sg13
VDejaVu Sans
p843
sg15
I400
sg16
g12
sg17
g12
sg18
V/usr/share/fonts/truetype/dejavu/DejaVuSans-Oblique.ttf
p844
sg20
g21
sbag1
(g8
g3
NtRp845
(dp846
g11
g12
sg13
VNanumBarunGothic
p847
sg15
I700
sg16
g12
sg17
g12
sg18
V/usr/share/fonts/truetype/nanum/NanumBarunGothicBold.ttf
p848
sg20
g21
sbag1
(g8
g3
NtRp849
(dp850
g11
g12
sg13
VUme P Gothic
p851
sg15
I400
sg16
g12
sg17
g12
sg18
V/usr/share/fonts/truetype/horai-umefont/ume-pgo4.ttf
p852
sg20
g21
sbag1
(g8
g3
NtRp853
(dp854
g11
g12
sg13
VEB Garamond Initials
p855
sg15
I400
sg16
g12
sg17
g12
sg18
V/usr/share/fonts/opentype/ebgaramond/EBGaramond-Initials.otf
p856
sg20
g21
sbag1
(g8
g3
NtRp857
(dp858
g11
g53
sg13
VJunicode
p859
sg15
I700
sg16
g12
sg17
g12
sg18
V/usr/share/fonts/truetype/junicode/Junicode-BoldItalic.ttf
p860
sg20
g21
sbag1
(g8
g3
NtRp861
(dp862
g11
g12
sg13
VMathJax_Size4
p863
sg15
I400
sg16
g12
sg17
g12
sg18
V/usr/share/fonts/opentype/mathjax/MathJax_Size4-Regular.otf
p864
sg20
g21
sbag1
(g8
g3
NtRp865
(dp866
g11
g53
sg13
VTeX Gyre Bonum
p867
sg15
I700
sg16
g12
sg17
g12
sg18
V/usr/share/texmf/fonts/opentype/public/tex-gyre/texgyrebonum-bolditalic.otf
p868
sg20
g21
sbag1
(g8
g3
NtRp869
(dp870
g11
g12
sg13
VTlwg Mono
p871
sg15
I700
sg16
g12
sg17
g12
sg18
V/usr/share/fonts/truetype/tlwg/TlwgMono-Bold.ttf
p872
sg20
g21
sbag1
(g8
g3
NtRp873
(dp874
g11
g53
sg13
VLiberation Mono
p875
sg15
I400
sg16
g12
sg17
g12
sg18
V/usr/share/fonts/truetype/liberation/LiberationMono-Italic.ttf
p876
sg20
g21
sbag1
(g8
g3
NtRp877
(dp878
g11
g53
sg13
VLiberation Serif
p879
sg15
I700
sg16
g12
sg17
g12
sg18
V/usr/share/fonts/truetype/liberation/LiberationSerif-BoldItalic.ttf
p880
sg20
g21
sbag1
(g8
g3
NtRp881
(dp882
g11
g12
sg13
VMathJax_Main
p883
sg15
I400
sg16
g12
sg17
g12
sg18
V/usr/share/fonts/opentype/mathjax/MathJax_Main-Regular.otf
p884
sg20
g21
sbag1
(g8
g3
NtRp885
(dp886
g11
g12
sg13
VCMU Typewriter Text Variable Width
p887
sg15
I400
sg16
g12
sg17
g12
sg18
V/usr/share/fonts/truetype/cmu/cmunvt.ttf
p888
sg20
g21
sbag1
(g8
g3
NtRp889
(dp890
g11
g12
sg13
VLatin Modern Roman Slanted
p891
sg15
I400
sg16
g12
sg17
g12
sg18
V/usr/share/texmf/fonts/opentype/public/lm/lmromanslant8-regular.otf
p892
sg20
g21
sbag1
(g8
g3
NtRp893
(dp894
g11
g12
sg13
VLiberation Serif
p895
sg15
I700
sg16
g12
sg17
g12
sg18
V/usr/share/fonts/truetype/liberation/LiberationSerif-Bold.ttf
p896
sg20
g21
sbag1
(g8
g3
NtRp897
(dp898
g11
g53
sg13
VSTIXGeneral
p899
sg15
I700
sg16
g12
sg17
g12
sg18
V/usr/share/fonts/opentype/stix/STIXGeneral-BoldItalic.otf
p900
sg20
g21
sbag1
(g8
g3
NtRp901
(dp902
g11
g12
sg13
VUniversalis ADF Std
p903
sg15
I700
sg16
g12
sg17
g12
sg18
V/usr/share/fonts/truetype/adf/UniversalisADFStd-Bold.otf
p904
sg20
g21
sbag1
(g8
g3
NtRp905
(dp906
g11
g12
sg13
VWaree
p907
sg15
I700
sg16
g12
sg17
g12
sg18
V/usr/share/fonts/truetype/tlwg/Waree-Bold.ttf
p908
sg20
g21
sbag1
(g8
g3
NtRp909
(dp910
g11
g53
sg13
VLato
p911
sg15
I700
sg16
g12
sg17
g12
sg18
V/usr/share/fonts/truetype/lato/Lato-BoldItalic.ttf
p912
sg20
g21
sbag1
(g8
g3
NtRp913
(dp914
g11
g24
sg13
VLatin Modern Mono Light
p915
sg15
I700
sg16
g12
sg17
g12
sg18
V/usr/share/texmf/fonts/opentype/public/lm/lmmonolt10-boldoblique.otf
p916
sg20
g21
sbag1
(g8
g3
NtRp917
(dp918
g11
g12
sg13
VDejaVu Serif
p919
sg15
I400
sg16
g167
sg17
g12
sg18
V/usr/share/fonts/truetype/dejavu/DejaVuSerifCondensed.ttf
p920
sg20
g21
sbag1
(g8
g3
NtRp921
(dp922
g11
g53
sg13
VCMU Typewriter Text Variable Width
p923
sg15
I400
sg16
g12
sg17
g12
sg18
V/usr/share/fonts/truetype/cmu/cmunvi.ttf
p924
sg20
g21
sbag1
(g8
g3
NtRp925
(dp926
g11
g12
sg13
VLatin Modern Roman
p927
sg15
I700
sg16
g12
sg17
g12
sg18
V/usr/share/texmf/fonts/opentype/public/lm/lmroman6-bold.otf
p928
sg20
g21
sbag1
(g8
g3
NtRp929
(dp930
g11
g53
sg13
VTeX Gyre Termes
p931
sg15
I400
sg16
g12
sg17
g12
sg18
V/usr/share/texmf/fonts/opentype/public/tex-gyre/texgyretermes-italic.otf
p932
sg20
g21
sbag1
(g8
g3
NtRp933
(dp934
g11
g12
sg13
VEB Garamond
p935
sg15
I400
sg16
g12
sg17
g12
sg18
V/usr/share/fonts/truetype/ebgaramond/EBGaramond08-Regular.ttf
p936
sg20
g21
sbag1
(g8
g3
NtRp937
(dp938
g11
g12
sg13
VGFS Olga
p939
sg15
I400
sg16
g12
sg17
g12
sg18
V/usr/share/fonts/truetype/olga/GFSOlga.otf
p940
sg20
g21
sbag1
(g8
g3
NtRp941
(dp942
g11
g12
sg13
VLatin Modern Mono Prop
p943
sg15
I400
sg16
g12
sg17
g12
sg18
V/usr/share/texmf/fonts/opentype/public/lm/lmmonoprop10-regular.otf
p944
sg20
g21
sbag1
(g8
g3
NtRp945
(dp946
g11
g12
sg13
VNorasi
p947
sg15
I700
sg16
g12
sg17
g12
sg18
V/usr/share/fonts/truetype/tlwg/Norasi-Bold.ttf
p948
sg20
g21
sbag1
(g8
g3
NtRp949
(dp950
g11
g12
sg13
VCMU Typewriter Text
p951
sg15
I400
sg16
g12
sg17
g12
sg18
V/usr/share/fonts/truetype/cmu/cmuntt.ttf
p952
sg20
g21
sbag1
(g8
g3
NtRp953
(dp954
g11
g53
sg13
VTeX Gyre Heros
p955
sg15
I400
sg16
g12
sg17
g12
sg18
V/usr/share/texmf/fonts/opentype/public/tex-gyre/texgyreheros-italic.otf
p956
sg20
g21
sbag1
(g8
g3
NtRp957
(dp958
g11
g53
sg13
VTeX Gyre Heros Cn
p959
sg15
I700
sg16
g12
sg17
g12
sg18
V/usr/share/texmf/fonts/opentype/public/tex-gyre/texgyreheroscn-bolditalic.otf
p960
sg20
g21
sbag1
(g8
g3
NtRp961
(dp962
g11
g24
sg13
VKinnari
p963
sg15
I700
sg16
g12
sg17
g12
sg18
V/usr/share/fonts/truetype/tlwg/Kinnari-BoldOblique.ttf
p964
sg20
g21
sbag1
(g8
g3
NtRp965
(dp966
g11
g53
sg13
VSTIXNonUnicode
p967
sg15
I400
sg16
g12
sg17
g12
sg18
V/usr/share/fonts/opentype/stix/STIXNonUnicode-Italic.otf
p968
sg20
g21
sbag1
(g8
g3
NtRp969
(dp970
g11
g12
sg13
VKacstOne
p971
sg15
I400
sg16
g12
sg17
g12
sg18
V/usr/share/fonts/truetype/kacst-one/KacstOne.ttf
p972
sg20
g21
sbag1
(g8
g3
NtRp973
(dp974
g11
g53
sg13
VTeX Gyre Schola
p975
sg15
I700
sg16
g12
sg17
g12
sg18
V/usr/share/texmf/fonts/opentype/public/tex-gyre/texgyreschola-bolditalic.otf
p976
sg20
g21
sbag1
(g8
g3
NtRp977
(dp978
g11
g12
sg13
VLatin Modern Sans Quotation
p979
sg15
I700
sg16
g12
sg17
g12
sg18
V/usr/share/texmf/fonts/opentype/public/lm/lmsansquot8-bold.otf
p980
sg20
g21
sbag1
(g8
g3
NtRp981
(dp982
g11
g12
sg13
VGillius ADF
p983
sg15
I700
sg16
g12
sg17
g12
sg18
V/usr/share/fonts/truetype/adf/GilliusADF-Bold.otf
p984
sg20
g21
sbag1
(g8
g3
NtRp985
(dp986
g11
g24
sg13
VFreeMono
p987
sg15
I700
sg16
g12
sg17
g12
sg18
V/usr/share/fonts/opentype/freefont/FreeMonoBoldOblique.otf
p988
sg20
g21
sbag1
(g8
g3
NtRp989
(dp990
g11
g12
sg13
VLatin Modern Roman Slanted
p991
sg15
I400
sg16
g12
sg17
g12
sg18
V/usr/share/texmf/fonts/opentype/public/lm/lmromanslant9-regular.otf
p992
sg20
g21
sbag1
(g8
g3
NtRp993
(dp994
g11
g12
sg13
VLatin Modern Mono Slanted
p995
sg15
I400
sg16
g12
sg17
g12
sg18
V/usr/share/texmf/fonts/opentype/public/lm/lmmonoslant10-regular.otf
p996
sg20
g21
sbag1
(g8
g3
NtRp997
(dp998
g11
g24
sg13
VLatin Modern Sans Quotation
p999
sg15
I700
sg16
g12
sg17
g12
sg18
V/usr/share/texmf/fonts/opentype/public/lm/lmsansquot8-boldoblique.otf
p1000
sg20
g21
sbag1
(g8
g3
NtRp1001
(dp1002
g11
g53
sg13
VGillius ADF No2 Cd
p1003
sg15
I400
sg16
g12
sg17
g12
sg18
V/usr/share/fonts/truetype/adf/GilliusADFNo2Cd-Italic.otf
p1004
sg20
g21
sbag1
(g8
g3
NtRp1005
(dp1006
g11
g12
sg13
VFreeMono
p1007
sg15
I700
sg16
g12
sg17
g12
sg18
V/usr/share/fonts/truetype/freefont/FreeMonoBold.ttf
p1008
sg20
g21
sbag1
(g8
g3
NtRp1009
(dp1010
g11
g12
sg13
VAccanthis ADF Std
p1011
sg15
I400
sg16
g12
sg17
g12
sg18
V/usr/share/fonts/truetype/adf/AccanthisADFStd-Regular.otf
p1012
sg20
g21
sbag1
(g8
g3
NtRp1013
(dp1014
g11
g12
sg13
VKacstBook
p1015
sg15
I400
sg16
g12
sg17
g12
sg18
V/usr/share/fonts/truetype/kacst/KacstBook.ttf
p1016
sg20
g21
sbag1
(g8
g3
NtRp1017
(dp1018
g11
g12
sg13
VLato
p1019
sg15
I400
sg16
g12
sg17
g12
sg18
V/usr/share/fonts/truetype/lato/Lato-Thin.ttf
p1020
sg20
g21
sbag1
(g8
g3
NtRp1021
(dp1022
g11
g12
sg13
VTeX Gyre Heros
p1023
sg15
I700
sg16
g12
sg17
g12
sg18
V/usr/share/texmf/fonts/opentype/public/tex-gyre/texgyreheros-bold.otf
p1024
sg20
g21
sbag1
(g8
g3
NtRp1025
(dp1026
g11
g12
sg13
Vwasy10
p1027
sg15
I400
sg16
g12
sg17
g12
sg18
V/usr/share/fonts/truetype/lyx/wasy10.ttf
p1028
sg20
g21
sbag1
(g8
g3
NtRp1029
(dp1030
g11
g12
sg13
VGFS Porson
p1031
sg15
I400
sg16
g12
sg17
g12
sg18
V/usr/share/fonts/truetype/porson/GFSPorson.otf
p1032
sg20
g21
sbag1
(g8
g3
NtRp1033
(dp1034
g11
g12
sg13
VSTIXGeneral
p1035
sg15
I700
sg16
g12
sg17
g12
sg18
V/usr/share/fonts/opentype/stix/STIXGeneral-Bold.otf
p1036
sg20
g21
sbag1
(g8
g3
NtRp1037
(dp1038
g11
g12
sg13
VComfortaa
p1039
sg15
I400
sg16
g12
sg17
g12
sg18
V/usr/share/fonts/truetype/comfortaa/Comfortaa-Regular.ttf
p1040
sg20
g21
sbag1
(g8
g3
NtRp1041
(dp1042
g11
g12
sg13
VDejaVu Sans
p1043
sg15
I400
sg16
g167
sg17
g12
sg18
V/usr/share/fonts/truetype/dejavu/DejaVuSansCondensed.ttf
p1044
sg20
g21
sbag1
(g8
g3
NtRp1045
(dp1046
g11
g12
sg13
VUnGungseo
p1047
sg15
I400
sg16
g12
sg17
g12
sg18
V/usr/share/fonts/truetype/unfonts-core/UnGungseo.ttf
p1048
sg20
g21
sbag1
(g8
g3
NtRp1049
(dp1050
g11
g12
sg13
VComfortaa
p1051
sg15
I700
sg16
g12
sg17
g12
sg18
V/usr/share/fonts/truetype/comfortaa/Comfortaa-Bold.ttf
p1052
sg20
g21
sbag1
(g8
g3
NtRp1053
(dp1054
g11
g24
sg13
VDejaVu Sans
p1055
sg15
I700
sg16
g167
sg17
g12
sg18
V/usr/share/fonts/truetype/dejavu/DejaVuSansCondensed-BoldOblique.ttf
p1056
sg20
g21
sbag1
(g8
g3
NtRp1057
(dp1058
g11
g12
sg13
VLatin Modern Roman
p1059
sg15
I400
sg16
g12
sg17
g12
sg18
V/usr/share/texmf/fonts/opentype/public/lm/lmroman8-regular.otf
p1060
sg20
g21
sbag1
(g8
g3
NtRp1061
(dp1062
g11
g53
sg13
VCMU Serif Extra
p1063
sg15
I500
sg16
g12
sg17
g12
sg18
V/usr/share/fonts/truetype/cmu/cmunsl.ttf
p1064
sg20
g21
sbag1
(g8
g3
NtRp1065
(dp1066
g11
g53
sg13
VEB Garamond
p1067
sg15
I400
sg16
g12
sg17
g12
sg18
V/usr/share/fonts/opentype/ebgaramond/EBGaramond08-Italic.otf
p1068
sg20
g21
sbag1
(g8
g3
NtRp1069
(dp1070
g11
g53
sg13
VLiberation Sans
p1071
sg15
I400
sg16
g12
sg17
g12
sg18
V/usr/share/fonts/truetype/liberation/LiberationSans-Italic.ttf
p1072
sg20
g21
sbag1
(g8
g3
NtRp1073
(dp1074
g11
g12
sg13
VUbuntu
p1075
sg15
I700
sg16
g12
sg17
g12
sg18
V/usr/share/fonts/truetype/ubuntu-font-family/Ubuntu-B.ttf
p1076
sg20
g21
sbag1
(g8
g3
NtRp1077
(dp1078
g11
g24
sg13
VFreeSans
p1079
sg15
I700
sg16
g12
sg17
g12
sg18
V/usr/share/fonts/truetype/freefont/FreeSansBoldOblique.ttf
p1080
sg20
g21
sbag1
(g8
g3
NtRp1081
(dp1082
g11
g24
sg13
VLatin Modern Sans
p1083
sg15
I400
sg16
g12
sg17
g12
sg18
V/usr/share/texmf/fonts/opentype/public/lm/lmsans12-oblique.otf
p1084
sg20
g21
sbag1
(g8
g3
NtRp1085
(dp1086
g11
g53
sg13
VLato
p1087
sg15
I400
sg16
g12
sg17
g12
sg18
V/usr/share/fonts/truetype/lato/Lato-HairlineItalic.ttf
p1088
sg20
g21
sbag1
(g8
g3
NtRp1089
(dp1090
g11
g12
sg13
VSTIXNonUnicode
p1091
sg15
I400
sg16
g12
sg17
g12
sg18
V/usr/share/fonts/opentype/stix/STIXNonUnicode-Regular.otf
p1092
sg20
g21
sbag1
(g8
g3
NtRp1093
(dp1094
g11
g12
sg13
VLato
p1095
sg15
I700
sg16
g12
sg17
g12
sg18
V/usr/share/fonts/truetype/lato/Lato-Bold.ttf
p1096
sg20
g21
sbag1
(g8
g3
NtRp1097
(dp1098
g11
g12
sg13
VPadauk Book
p1099
sg15
I700
sg16
g12
sg17
g12
sg18
V/usr/share/fonts/truetype/padauk/Padauk-bookbold.ttf
p1100
sg20
g21
sbag1
(g8
g3
NtRp1101
(dp1102
g11
g12
sg13
VCabin
p1103
sg15
I400
sg16
g12
sg17
g12
sg18
V/usr/share/fonts/opentype/cabin/Cabin-Regular.otf
p1104
sg20
g21
sbag1
(g8
g3
NtRp1105
(dp1106
g11
g12
sg13
VFreeSans
p1107
sg15
I400
sg16
g12
sg17
g12
sg18
V/usr/share/fonts/truetype/freefont/FreeSans.ttf
p1108
sg20
g21
sbag1
(g8
g3
NtRp1109
(dp1110
g11
g12
sg13
VNanumMyeongjo
p1111
sg15
I700
sg16
g12
sg17
g12
sg18
V/usr/share/fonts/truetype/nanum/NanumMyeongjoBold.ttf
p1112
sg20
g21
sbag1
(g8
g3
NtRp1113
(dp1114
g11
g24
sg13
VKinnari
p1115
sg15
I400
sg16
g12
sg17
g12
sg18
V/usr/share/fonts/truetype/tlwg/Kinnari-Oblique.ttf
p1116
sg20
g21
sbag1
(g8
g3
NtRp1117
(dp1118
g11
g53
sg13
VTeX Gyre Adventor
p1119
sg15
I700
sg16
g12
sg17
g12
sg18
V/usr/share/texmf/fonts/opentype/public/tex-gyre/texgyreadventor-bolditalic.otf
p1120
sg20
g21
sbag1
(g8
g3
NtRp1121
(dp1122
g11
g12
sg13
VUmpush
p1123
sg15
I200
sg16
g12
sg17
g12
sg18
V/usr/share/fonts/truetype/tlwg/Umpush-Light.ttf
p1124
sg20
g21
sbag1
(g8
g3
NtRp1125
(dp1126
g11
g53
sg13
VAccanthis ADF Std No2
p1127
sg15
I700
sg16
g12
sg17
g12
sg18
V/usr/share/fonts/truetype/adf/AccanthisADFStdNo2-BoldItalic.otf
p1128
sg20
g21
sbag1
(g8
g3
NtRp1129
(dp1130
g11
g53
sg13
VLato
p1131
sg15
I700
sg16
g12
sg17
g12
sg18
V/usr/share/fonts/truetype/lato/Lato-SemiboldItalic.ttf
p1132
sg20
g21
sbag1
(g8
g3
NtRp1133
(dp1134
g11
g12
sg13
VUnBatang
p1135
sg15
I700
sg16
g12
sg17
g12
sg18
V/usr/share/fonts/truetype/unfonts-core/UnBatangBold.ttf
p1136
sg20
g21
sbag1
(g8
g3
NtRp1137
(dp1138
g11
g24
sg13
VPurisa
p1139
sg15
I700
sg16
g12
sg17
g12
sg18
V/usr/share/fonts/truetype/tlwg/Purisa-BoldOblique.ttf
p1140
sg20
g21
sbag1
(g8
g3
NtRp1141
(dp1142
g11
g53
sg13
VGFS Didot
p1143
sg15
I700
sg16
g12
sg17
g12
sg18
V/usr/share/fonts/truetype/artemisia/GFSArtemisiaBoldIt.otf
p1144
sg20
g21
sbag1
(g8
g3
NtRp1145
(dp1146
g11
g53
sg13
VRoboto
p1147
sg15
I700
sg16
g12
sg17
g12
sg18
V/usr/share/fonts/truetype/roboto/hinted/Roboto-BoldItalic.ttf
p1148
sg20
g21
sbag1
(g8
g3
NtRp1149
(dp1150
g11
g12
sg13
VSTIX
p1151
sg15
I700
sg16
g12
sg17
g12
sg18
V/usr/share/fonts/opentype/stix-word/STIX-Bold.otf
p1152
sg20
g21
sbag1
(g8
g3
NtRp1153
(dp1154
g11
g12
sg13
VTeX Gyre Heros
p1155
sg15
I400
sg16
g12
sg17
g12
sg18
V/usr/share/texmf/fonts/opentype/public/tex-gyre/texgyreheros-regular.otf
p1156
sg20
g21
sbag1
(g8
g3
NtRp1157
(dp1158
g11
g53
sg13
VGentium Basic
p1159
sg15
I700
sg16
g12
sg17
g12
sg18
V/usr/share/fonts/truetype/gentium-basic/GenBasBI.ttf
p1160
sg20
g21
sbag1
(g8
g3
NtRp1161
(dp1162
g11
g12
sg13
VDejaVu Sans
p1163
sg15
I400
sg16
g12
sg17
g12
sg18
V/usr/share/fonts/truetype/dejavu/DejaVuSans.ttf
p1164
sg20
g21
sbag1
(g8
g3
NtRp1165
(dp1166
g11
g12
sg13
VLinux Biolinum Keyboard O
p1167
sg15
I400
sg16
g12
sg17
g12
sg18
V/usr/share/fonts/opentype/linux-libertine/LinBiolinum_K.otf
p1168
sg20
g21
sbag1
(g8
g3
NtRp1169
(dp1170
g11
g24
sg13
VUniversalis ADF Cd Std
p1171
sg15
I400
sg16
g12
sg17
g12
sg18
V/usr/share/fonts/truetype/adf/UniversalisADFCdStd-Oblique.otf
p1172
sg20
g21
sbag1
(g8
g3
NtRp1173
(dp1174
g11
g53
sg13
VCarlito
p1175
sg15
I700
sg16
g12
sg17
g12
sg18
V/usr/share/fonts/truetype/crosextra/Carlito-BoldItalic.ttf
p1176
sg20
g21
sbag1
(g8
g3
NtRp1177
(dp1178
g11
g53
sg13
VRoboto
p1179
sg15
I400
sg16
g12
sg17
g12
sg18
V/usr/share/fonts/truetype/roboto/hinted/Roboto-ThinItalic.ttf
p1180
sg20
g21
sbag1
(g8
g3
NtRp1181
(dp1182
g11
g24
sg13
VFreeMono
p1183
sg15
I400
sg16
g12
sg17
g12
sg18
V/usr/share/fonts/truetype/freefont/FreeMonoOblique.ttf
p1184
sg20
g21
sbag1
(g8
g3
NtRp1185
(dp1186
g11
g12
sg13
VMathJax_Size1
p1187
sg15
I400
sg16
g12
sg17
g12
sg18
V/usr/share/fonts/opentype/mathjax/MathJax_Size1-Regular.otf
p1188
sg20
g21
sbag1
(g8
g3
NtRp1189
(dp1190
g11
g53
sg13
VSTIXNonUnicode
p1191
sg15
I700
sg16
g12
sg17
g12
sg18
V/usr/share/fonts/opentype/stix/STIXNonUnicode-BoldItalic.otf
p1192
sg20
g21
sbag1
(g8
g3
NtRp1193
(dp1194
g11
g12
sg13
VLatin Modern Roman Slanted
p1195
sg15
I700
sg16
g12
sg17
g12
sg18
V/usr/share/texmf/fonts/opentype/public/lm/lmromanslant10-bold.otf
p1196
sg20
g21
sbag1
(g8
g3
NtRp1197
(dp1198
g11
g12
sg13
VGillius ADF
p1199
sg15
I400
sg16
g12
sg17
g12
sg18
V/usr/share/fonts/truetype/adf/GilliusADF-Regular.otf
p1200
sg20
g21
sbag1
(g8
g3
NtRp1201
(dp1202
g11
g12
sg13
VLatin Modern Sans
p1203
sg15
I400
sg16
g12
sg17
g12
sg18
V/usr/share/texmf/fonts/opentype/public/lm/lmsans9-regular.otf
p1204
sg20
g21
sbag1
(g8
g3
NtRp1205
(dp1206
g11
g53
sg13
VLato
p1207
sg15
I200
sg16
g12
sg17
g12
sg18
V/usr/share/fonts/truetype/lato/Lato-LightItalic.ttf
p1208
sg20
g21
sbag1
(g8
g3
NtRp1209
(dp1210
g11
g12
sg13
VSTIXVariants
p1211
sg15
I700
sg16
g12
sg17
g12
sg18
V/usr/share/fonts/opentype/stix/STIXVariants-Bold.otf
p1212
sg20
g21
sbag1
(g8
g3
NtRp1213
(dp1214
g11
g53
sg13
VGillius ADF
p1215
sg15
I400
sg16
g12
sg17
g12
sg18
V/usr/share/fonts/truetype/adf/GilliusADF-Italic.otf
p1216
sg20
g21
sbag1
(g8
g3
NtRp1217
(dp1218
g11
g24
sg13
VLatin Modern Sans Quotation
p1219
sg15
I700
sg16
g12
sg17
g12
sg18
V/usr/share/texmf/fonts/opentype/public/lm/lmsansquot8-oblique.otf
p1220
sg20
g21
sbag1
(g8
g3
NtRp1221
(dp1222
g11
g53
sg13
VLato
p1223
sg15
I400
sg16
g12
sg17
g12
sg18
V/usr/share/fonts/truetype/lato/Lato-ThinItalic.ttf
p1224
sg20
g21
sbag1
(g8
g3
NtRp1225
(dp1226
g11
g24
sg13
VSawasdee
p1227
sg15
I400
sg16
g12
sg17
g12
sg18
V/usr/share/fonts/truetype/tlwg/Sawasdee-Oblique.ttf
p1228
sg20
g21
sbag1
(g8
g3
NtRp1229
(dp1230
g11
g53
sg13
VLatin Modern Roman
p1231
sg15
I700
sg16
g12
sg17
g12
sg18
V/usr/share/texmf/fonts/opentype/public/lm/lmroman10-bolditalic.otf
p1232
sg20
g21
sbag1
(g8
g3
NtRp1233
(dp1234
g11
g12
sg13
VSTIXIntegralsD
p1235
sg15
I700
sg16
g12
sg17
g12
sg18
V/usr/share/fonts/opentype/stix/STIXIntegralsD-Bold.otf
p1236
sg20
g21
sbag1
(g8
g3
NtRp1237
(dp1238
g11
g12
sg13
VKhmer OS
p1239
sg15
I400
sg16
g12
sg17
g12
sg18
V/usr/share/fonts/truetype/ttf-khmeros-core/KhmerOS.ttf
p1240
sg20
g21
sbag1
(g8
g3
NtRp1241
(dp1242
g11
g12
sg13
VPadauk
p1243
sg15
I400
sg16
g12
sg17
g12
sg18
V/usr/share/fonts/truetype/padauk/Padauk.ttf
p1244
sg20
g21
sbag1
(g8
g3
NtRp1245
(dp1246
g11
g12
sg13
VTeX Gyre Pagella
p1247
sg15
I700
sg16
g12
sg17
g12
sg18
V/usr/share/texmf/fonts/opentype/public/tex-gyre/texgyrepagella-bold.otf
p1248
sg20
g21
sbag1
(g8
g3
NtRp1249
(dp1250
g11
g53
sg13
VMathJax_Math
p1251
sg15
I400
sg16
g12
sg17
g12
sg18
V/usr/share/fonts/opentype/mathjax/MathJax_Math-Italic.otf
p1252
sg20
g21
sbag1
(g8
g3
NtRp1253
(dp1254
g11
g12
sg13
VGillius ADF No2
p1255
sg15
I700
sg16
g12
sg17
g12
sg18
V/usr/share/fonts/truetype/adf/GilliusADFNo2-Bold.otf
p1256
sg20
g21
sbag1
(g8
g3
NtRp1257
(dp1258
g11
g24
sg13
VTlwg Typewriter
p1259
sg15
I400
sg16
g12
sg17
g12
sg18
V/usr/share/fonts/truetype/tlwg/TlwgTypewriter-Oblique.ttf
p1260
sg20
g21
sbag1
(g8
g3
NtRp1261
(dp1262
g11
g53
sg13
VLato
p1263
sg15
I900
sg16
g12
sg17
g12
sg18
V/usr/share/fonts/truetype/lato/Lato-BlackItalic.ttf
p1264
sg20
g21
sbag1
(g8
g3
NtRp1265
(dp1266
g11
g12
sg13
VWaree
p1267
sg15
I400
sg16
g12
sg17
g12
sg18
V/usr/share/fonts/truetype/tlwg/Waree.ttf
p1268
sg20
g21
sbag1
(g8
g3
NtRp1269
(dp1270
g11
g12
sg13
VFreeMono
p1271
sg15
I400
sg16
g12
sg17
g12
sg18
V/usr/share/fonts/truetype/freefont/FreeMono.ttf
p1272
sg20
g21
sbag1
(g8
g3
NtRp1273
(dp1274
g11
g12
sg13
VLatin Modern Mono
p1275
sg15
I400
sg16
g12
sg17
g12
sg18
V/usr/share/texmf/fonts/opentype/public/lm/lmmono9-regular.otf
p1276
sg20
g21
sbag1
(g8
g3
NtRp1277
(dp1278
g11
g53
sg13
VGillius ADF No2 Cd
p1279
sg15
I700
sg16
g12
sg17
g12
sg18
V/usr/share/fonts/truetype/adf/GilliusADFNo2Cd-BoldItalic.otf
p1280
sg20
g21
sbag1
(g8
g3
NtRp1281
(dp1282
g11
g12
sg13
VSTIXIntegralsUpSm
p1283
sg15
I700
sg16
g12
sg17
g12
sg18
V/usr/share/fonts/opentype/stix/STIXIntegralsUpSm-Bold.otf
p1284
sg20
g21
sbag1
(g8
g3
NtRp1285
(dp1286
g11
g12
sg13
VLatin Modern Roman
p1287
sg15
I700
sg16
g12
sg17
g12
sg18
V/usr/share/texmf/fonts/opentype/public/lm/lmroman10-bold.otf
p1288
sg20
g21
sbag1
(g8
g3
NtRp1289
(dp1290
g11
g12
sg13
VLinux Libertine Initials O
p1291
sg15
I400
sg16
g12
sg17
g12
sg18
V/usr/share/fonts/opentype/linux-libertine/LinLibertine_I.otf
p1292
sg20
g21
sbag1
(g8
g3
NtRp1293
(dp1294
g11
g12
sg13
VUnPilgi
p1295
sg15
I700
sg16
g12
sg17
g12
sg18
V/usr/share/fonts/truetype/unfonts-core/UnPilgiBold.ttf
p1296
sg20
g21
sbag1
(g8
g3
NtRp1297
(dp1298
g11
g53
sg13
VTeX Gyre Heros Cn
p1299
sg15
I400
sg16
g12
sg17
g12
sg18
V/usr/share/texmf/fonts/opentype/public/tex-gyre/texgyreheroscn-italic.otf
p1300
sg20
g21
sbag1
(g8
g3
NtRp1301
(dp1302
g11
g12
sg13
VLatin Modern Roman
p1303
sg15
I400
sg16
g12
sg17
g12
sg18
V/usr/share/texmf/fonts/opentype/public/lm/lmroman7-regular.otf
p1304
sg20
g21
sbag1
(g8
g3
NtRp1305
(dp1306
g11
g12
sg13
VUmpush
p1307
sg15
I400
sg16
g12
sg17
g12
sg18
V/usr/share/fonts/truetype/tlwg/Umpush.ttf
p1308
sg20
g21
sbag1
(g8
g3
NtRp1309
(dp1310
g11
g53
sg13
VTeX Gyre Heros
p1311
sg15
I700
sg16
g12
sg17
g12
sg18
V/usr/share/texmf/fonts/opentype/public/tex-gyre/texgyreheros-bolditalic.otf
p1312
sg20
g21
sbag1
(g8
g3
NtRp1313
(dp1314
g11
g12
sg13
VCMU Typewriter Text
p1315
sg15
I200
sg16
g12
sg17
g12
sg18
V/usr/share/fonts/truetype/cmu/cmunbtl.ttf
p1316
sg20
g21
sbag1
(g8
g3
NtRp1317
(dp1318
g11
g53
sg13
VEB Garamond
p1319
sg15
I400
sg16
g12
sg17
g12
sg18
V/usr/share/fonts/truetype/ebgaramond/EBGaramond12-Italic.ttf
p1320
sg20
g21
sbag1
(g8
g3
NtRp1321
(dp1322
g11
g53
sg13
VGillius ADF No2
p1323
sg15
I400
sg16
g12
sg17
g12
sg18
V/usr/share/fonts/truetype/adf/GilliusADFNo2-Italic.otf
p1324
sg20
g21
sbag1
(g8
g3
NtRp1325
(dp1326
g11
g12
sg13
VUme UI Gothic
p1327
sg15
I400
sg16
g12
sg17
g12
sg18
V/usr/share/fonts/truetype/horai-umefont/ume-ugo4.ttf
p1328
sg20
g21
sbag1
(g8
g3
NtRp1329
(dp1330
g11
g53
sg13
VTeX Gyre Cursor
p1331
sg15
I700
sg16
g12
sg17
g12
sg18
V/usr/share/texmf/fonts/opentype/public/tex-gyre/texgyrecursor-bolditalic.otf
p1332
sg20
g21
sbag1
(g8
g3
NtRp1333
(dp1334
g11
g12
sg13
VAccanthis ADF Std No3
p1335
sg15
I400
sg16
g12
sg17
g12
sg18
V/usr/share/fonts/truetype/adf/AccanthisADFStdNo3-Regular.otf
p1336
sg20
g21
sbag1
(g8
g3
NtRp1337
(dp1338
g11
g12
sg13
VLatin Modern Math
p1339
sg15
I400
sg16
g12
sg17
g12
sg18
V/usr/share/texmf/fonts/opentype/public/lm-math/latinmodern-math.otf
p1340
sg20
g21
sbag1
(g8
g3
NtRp1341
(dp1342
g11
g53
sg13
VAccanthis ADF Std
p1343
sg15
I400
sg16
g12
sg17
g12
sg18
V/usr/share/fonts/truetype/adf/AccanthisADFStd-Italic.otf
p1344
sg20
g21
sbag1
(g8
g3
NtRp1345
(dp1346
g11
g12
sg13
VLiberation Mono
p1347
sg15
I700
sg16
g12
sg17
g12
sg18
V/usr/share/fonts/truetype/liberation/LiberationMono-Bold.ttf
p1348
sg20
g21
sbag1
(g8
g3
NtRp1349
(dp1350
g11
g12
sg13
VFreeSerif
p1351
sg15
I700
sg16
g12
sg17
g12
sg18
V/usr/share/fonts/truetype/freefont/FreeSerifBold.ttf
p1352
sg20
g21
sbag1
(g8
g3
NtRp1353
(dp1354
g11
g53
sg13
VDejaVu Serif
p1355
sg15
I700
sg16
g12
sg17
g12
sg18
V/usr/share/fonts/truetype/dejavu/DejaVuSerif-BoldItalic.ttf
p1356
sg20
g21
sbag1
(g8
g3
NtRp1357
(dp1358
g11
g12
sg13
VTeX Gyre Termes
p1359
sg15
I400
sg16
g12
sg17
g12
sg18
V/usr/share/texmf/fonts/opentype/public/tex-gyre/texgyretermes-regular.otf
p1360
sg20
g21
sbag1
(g8
g3
NtRp1361
(dp1362
g11
g12
sg13
VLKLUG
p1363
sg15
I400
sg16
g12
sg17
g12
sg18
V/usr/share/fonts/truetype/sinhala/lklug.ttf
p1364
sg20
g21
sbag1
(g8
g3
NtRp1365
(dp1366
g11
g53
sg13
VCMU Typewriter Text
p1367
sg15
I700
sg16
g12
sg17
g12
sg18
V/usr/share/fonts/truetype/cmu/cmuntx.ttf
p1368
sg20
g21
sbag1
(g8
g3
NtRp1369
(dp1370
g11
g12
sg13
VFontAwesome
p1371
sg15
I400
sg16
g12
sg17
g12
sg18
V/usr/share/fonts/opentype/font-awesome/FontAwesome.otf
p1372
sg20
g21
sbag1
(g8
g3
NtRp1373
(dp1374
g11
g12
sg13
VUbuntu
p1375
sg15
I400
sg16
g12
sg17
g12
sg18
V/usr/share/fonts/truetype/ubuntu-font-family/Ubuntu-R.ttf
p1376
sg20
g21
sbag1
(g8
g3
NtRp1377
(dp1378
g11
g24
sg13
VDejaVu Sans
p1379
sg15
I700
sg16
g12
sg17
g12
sg18
V/usr/share/fonts/truetype/dejavu/DejaVuSans-BoldOblique.ttf
p1380
sg20
g21
sbag1
(g8
g3
NtRp1381
(dp1382
g11
g24
sg13
VTlwg Mono
p1383
sg15
I400
sg16
g12
sg17
g12
sg18
V/usr/share/fonts/truetype/tlwg/TlwgMono-Oblique.ttf
p1384
sg20
g21
sbag1
(g8
g3
NtRp1385
(dp1386
g11
g53
sg13
VTeX Gyre Pagella
p1387
sg15
I700
sg16
g12
sg17
g12
sg18
V/usr/share/texmf/fonts/opentype/public/tex-gyre/texgyrepagella-bolditalic.otf
p1388
sg20
g21
sbag1
(g8
g3
NtRp1389
(dp1390
g11
g53
sg13
VCMU Concrete
p1391
sg15
I700
sg16
g12
sg17
g12
sg18
V/usr/share/fonts/truetype/cmu/cmunobi.ttf
p1392
sg20
g21
sbag1
(g8
g3
NtRp1393
(dp1394
g11
g12
sg13
VGentium Plus
p1395
sg15
I400
sg16
g12
sg17
g12
sg18
V/usr/share/fonts/opentype/gentiumplus/GentiumPlus-R.ttf
p1396
sg20
g21
sbag1
(g8
g3
NtRp1397
(dp1398
g11
g12
sg13
VLatin Modern Mono
p1399
sg15
I400
sg16
g12
sg17
g12
sg18
V/usr/share/texmf/fonts/opentype/public/lm/lmmono10-regular.otf
p1400
sg20
g21
sbag1
(g8
g3
NtRp1401
(dp1402
g11
g12
sg13
VLatin Modern Roman Caps
p1403
sg15
I400
sg16
g12
sg17
g12
sg18
V/usr/share/texmf/fonts/opentype/public/lm/lmromancaps10-regular.otf
p1404
sg20
g21
sbag1
(g8
g3
NtRp1405
(dp1406
g11
g12
sg13
Vmsbm10
p1407
sg15
I400
sg16
g12
sg17
g12
sg18
V/usr/share/fonts/truetype/lyx/msbm10.ttf
p1408
sg20
g21
sbag1
(g8
g3
NtRp1409
(dp1410
g11
g53
sg13
VCarlito
p1411
sg15
I400
sg16
g12
sg17
g12
sg18
V/usr/share/fonts/truetype/crosextra/Carlito-Italic.ttf
p1412
sg20
g21
sbag1
(g8
g3
NtRp1413
(dp1414
g11
g53
sg13
VDejaVu Serif
p1415
sg15
I400
sg16
g12
sg17
g12
sg18
V/usr/share/fonts/truetype/dejavu/DejaVuSerif-Italic.ttf
p1416
sg20
g21
sbag1
(g8
g3
NtRp1417
(dp1418
g11
g12
sg13
VFreeSans
p1419
sg15
I700
sg16
g12
sg17
g12
sg18
V/usr/share/fonts/opentype/freefont/FreeSansBold.otf
p1420
sg20
g21
sbag1
(g8
g3
NtRp1421
(dp1422
g11
g12
sg13
VGillius ADF Cd
p1423
sg15
I700
sg16
g12
sg17
g12
sg18
V/usr/share/fonts/truetype/adf/GilliusADFCd-Bold.otf
p1424
sg20
g21
sbag1
(g8
g3
NtRp1425
(dp1426
g11
g12
sg13
VCMU Concrete
p1427
sg15
I500
sg16
g12
sg17
g12
sg18
V/usr/share/fonts/truetype/cmu/cmunorm.ttf
p1428
sg20
g21
sbag1
(g8
g3
NtRp1429
(dp1430
g11
g12
sg13
VKacstLetter
p1431
sg15
I400
sg16
g12
sg17
g12
sg18
V/usr/share/fonts/truetype/kacst/KacstLetter.ttf
p1432
sg20
g21
sbag1
(g8
g3
NtRp1433
(dp1434
g11
g12
sg13
VCaladea
p1435
sg15
I700
sg16
g12
sg17
g12
sg18
V/usr/share/fonts/truetype/crosextra/Caladea-Bold.ttf
p1436
sg20
g21
sbag1
(g8
g3
NtRp1437
(dp1438
g11
g12
sg13
VPhetsarath OT
p1439
sg15
I400
sg16
g12
sg17
g12
sg18
V/usr/share/fonts/truetype/lao/Phetsarath_OT.ttf
p1440
sg20
g21
sbag1
(g8
g3
NtRp1441
(dp1442
g11
g12
sg13
VSTIXSizeTwoSym
p1443
sg15
I400
sg16
g12
sg17
g12
sg18
V/usr/share/fonts/opentype/stix/STIXSizeTwoSym-Regular.otf
p1444
sg20
g21
sbag1
(g8
g3
NtRp1445
(dp1446
g11
g12
sg13
VTeX Gyre Pagella Math
p1447
sg15
I400
sg16
g12
sg17
g12
sg18
V/usr/share/texmf/fonts/opentype/public/tex-gyre-math/texgyrepagella-math.otf
p1448
sg20
g21
sbag1
(g8
g3
NtRp1449
(dp1450
g11
g12
sg13
VTakaoPGothic
p1451
sg15
I400
sg16
g12
sg17
g12
sg18
V/usr/share/fonts/truetype/takao-gothic/TakaoPGothic.ttf
p1452
sg20
g21
sbag1
(g8
g3
NtRp1453
(dp1454
g11
g12
sg13
VUme P Mincho S3
p1455
sg15
I400
sg16
g12
sg17
g12
sg18
V/usr/share/fonts/truetype/horai-umefont/ume-pms3.ttf
p1456
sg20
g21
sbag1
(g8
g3
NtRp1457
(dp1458
g11
g12
sg13
VCMU Sans Serif Demi Condensed
p1459
sg15
I600
sg16
g167
sg17
g12
sg18
V/usr/share/fonts/truetype/cmu/cmunssdc.ttf
p1460
sg20
g21
sbag1
(g8
g3
NtRp1461
(dp1462
g11
g53
sg13
VGFS Neohellenic
p1463
sg15
I400
sg16
g12
sg17
g12
sg18
V/usr/share/fonts/truetype/neohellenic/GFSNeohellenicIt.otf
p1464
sg20
g21
sbag1
(g8
g3
NtRp1465
(dp1466
g11
g12
sg13
VSTIXSizeFiveSym
p1467
sg15
I400
sg16
g12
sg17
g12
sg18
V/usr/share/fonts/opentype/stix/STIXSizeFiveSym-Regular.otf
p1468
sg20
g21
sbag1
(g8
g3
NtRp1469
(dp1470
g11
g12
sg13
VUme UI Gothic O5
p1471
sg15
I400
sg16
g12
sg17
g12
sg18
V/usr/share/fonts/truetype/horai-umefont/ume-ugo5.ttf
p1472
sg20
g21
sbag1
(g8
g3
NtRp1473
(dp1474
g11
g12
sg13
VEB Garamond Initials
p1475
sg15
I400
sg16
g12
sg17
g12
sg18
V/usr/share/fonts/truetype/ebgaramond/EBGaramond-Initials.ttf
p1476
sg20
g21
sbag1
(g8
g3
NtRp1477
(dp1478
g11
g12
sg13
VLatin Modern Mono
p1479
sg15
I400
sg16
g12
sg17
g12
sg18
V/usr/share/texmf/fonts/opentype/public/lm/lmmono12-regular.otf
p1480
sg20
g21
sbag1
(g8
g3
NtRp1481
(dp1482
g11
g12
sg13
VMathJax_AMS
p1483
sg15
I400
sg16
g12
sg17
g12
sg18
V/usr/share/fonts/opentype/mathjax/MathJax_AMS-Regular.otf
p1484
sg20
g21
sbag1
(g8
g3
NtRp1485
(dp1486
g11
g53
sg13
VNorasi
p1487
sg15
I700
sg16
g12
sg17
g12
sg18
V/usr/share/fonts/truetype/tlwg/Norasi-BoldItalic.ttf
p1488
sg20
g21
sbag1
(g8
g3
NtRp1489
(dp1490
g11
g12
sg13
VUmpush
p1491
sg15
I700
sg16
g12
sg17
g12
sg18
V/usr/share/fonts/truetype/tlwg/Umpush-Bold.ttf
p1492
sg20
g21
sbag1
(g8
g3
NtRp1493
(dp1494
g11
g53
sg13
VLiberation Sans
p1495
sg15
I700
sg16
g12
sg17
g12
sg18
V/usr/share/fonts/truetype/liberation/LiberationSans-BoldItalic.ttf
p1496
sg20
g21
sbag1
(g8
g3
NtRp1497
(dp1498
g11
g12
sg13
VTeX Gyre Adventor
p1499
sg15
I700
sg16
g12
sg17
g12
sg18
V/usr/share/texmf/fonts/opentype/public/tex-gyre/texgyreadventor-bold.otf
p1500
sg20
g21
sbag1
(g8
g3
NtRp1501
(dp1502
g11
g12
sg13
VLobster Two
p1503
sg15
I700
sg16
g12
sg17
g12
sg18
V/usr/share/fonts/opentype/lobstertwo/LobsterTwo-Bold.otf
p1504
sg20
g21
sbag1
(g8
g3
NtRp1505
(dp1506
g11
g24
sg13
VNorasi
p1507
sg15
I700
sg16
g12
sg17
g12
sg18
V/usr/share/fonts/truetype/tlwg/Norasi-BoldOblique.ttf
p1508
sg20
g21
sbag1
(g8
g3
NtRp1509
(dp1510
g11
g12
sg13
VLatin Modern Mono Light Cond
p1511
sg15
I400
sg16
g167
sg17
g12
sg18
V/usr/share/texmf/fonts/opentype/public/lm/lmmonoltcond10-regular.otf
p1512
sg20
g21
sbag1
(g8
g3
NtRp1513
(dp1514
g11
g12
sg13
VLatin Modern Roman Demi
p1515
sg15
I600
sg16
g12
sg17
g12
sg18
V/usr/share/texmf/fonts/opentype/public/lm/lmromandemi10-regular.otf
p1516
sg20
g21
sbag1
(g8
g3
NtRp1517
(dp1518
g11
g12
sg13
VMathJax_Script
p1519
sg15
I400
sg16
g12
sg17
g12
sg18
V/usr/share/fonts/opentype/mathjax/MathJax_Script-Regular.otf
p1520
sg20
g21
sbag1
(g8
g3
NtRp1521
(dp1522
g11
g53
sg13
VUbuntu Mono
p1523
sg15
I400
sg16
g12
sg17
g12
sg18
V/usr/share/fonts/truetype/ubuntu-font-family/UbuntuMono-RI.ttf
p1524
sg20
g21
sbag1
(g8
g3
NtRp1525
(dp1526
g11
g12
sg13
VLato
p1527
sg15
I900
sg16
g12
sg17
g12
sg18
V/usr/share/fonts/truetype/lato/Lato-Black.ttf
p1528
sg20
g21
sbag1
(g8
g3
NtRp1529
(dp1530
g11
g53
sg13
VRoboto
p1531
sg15
I200
sg16
g12
sg17
g12
sg18
V/usr/share/fonts/truetype/roboto/hinted/Roboto-LightItalic.ttf
p1532
sg20
g21
sbag1
(g8
g3
NtRp1533
(dp1534
g11
g12
sg13
VGFS Theokritos
p1535
sg15
I400
sg16
g12
sg17
g12
sg18
V/usr/share/fonts/truetype/theokritos/GFSTheokritos.otf
p1536
sg20
g21
sbag1
(g8
g3
NtRp1537
(dp1538
g11
g12
sg13
VMathJax_Caligraphic
p1539
sg15
I400
sg16
g12
sg17
g12
sg18
V/usr/share/fonts/opentype/mathjax/MathJax_Caligraphic-Regular.otf
p1540
sg20
g21
sbag1
(g8
g3
NtRp1541
(dp1542
g11
g12
sg13
VUbuntu
p1543
sg15
I200
sg16
g12
sg17
g12
sg18
V/usr/share/fonts/truetype/ubuntu-font-family/Ubuntu-L.ttf
p1544
sg20
g21
sbag1
(g8
g3
NtRp1545
(dp1546
g11
g24
sg13
VLatin Modern Sans Demi Cond
p1547
sg15
I600
sg16
g167
sg17
g12
sg18
V/usr/share/texmf/fonts/opentype/public/lm/lmsansdemicond10-oblique.otf
p1548
sg20
g21
sbag1
(g8
g3
NtRp1549
(dp1550
g11
g12
sg13
VLinux Libertine O
p1551
sg15
I700
sg16
g12
sg17
g12
sg18
V/usr/share/fonts/opentype/linux-libertine/LinLibertine_RB.otf
p1552
sg20
g21
sbag1
(g8
g3
NtRp1553
(dp1554
g11
g12
sg13
VDejaVu Sans
p1555
sg15
I200
sg16
g12
sg17
g12
sg18
V/usr/share/fonts/truetype/dejavu/DejaVuSans-ExtraLight.ttf
p1556
sg20
g21
sbag1
(g8
g3
NtRp1557
(dp1558
g11
g12
sg13
VKacstFarsi
p1559
sg15
I400
sg16
g12
sg17
g12
sg18
V/usr/share/fonts/truetype/kacst/KacstFarsi.ttf
p1560
sg20
g21
sbag1
(g8
g3
NtRp1561
(dp1562
g11
g12
sg13
VLato
p1563
sg15
I700
sg16
g12
sg17
g12
sg18
V/usr/share/fonts/truetype/lato/Lato-Semibold.ttf
p1564
sg20
g21
sbag1
(g8
g3
NtRp1565
(dp1566
g11
g24
sg13
VUniversalis ADF Cd Std
p1567
sg15
I700
sg16
g12
sg17
g12
sg18
V/usr/share/fonts/truetype/adf/UniversalisADFCdStd-BdOblique.otf
p1568
sg20
g21
sbag1
(g8
g3
NtRp1569
(dp1570
g11
g12
sg13
VCMU Bright
p1571
sg15
I700
sg16
g12
sg17
g12
sg18
V/usr/share/fonts/truetype/cmu/cmunbsr.ttf
p1572
sg20
g21
sbag1
(g8
g3
NtRp1573
(dp1574
g11
g53
sg13
VCMU Serif
p1575
sg15
I400
sg16
g12
sg17
g12
sg18
V/usr/share/fonts/truetype/cmu/cmunti.ttf
p1576
sg20
g21
sbag1
(g8
g3
NtRp1577
(dp1578
g11
g53
sg13
VTeX Gyre Schola
p1579
sg15
I400
sg16
g12
sg17
g12
sg18
V/usr/share/texmf/fonts/opentype/public/tex-gyre/texgyreschola-italic.otf
p1580
sg20
g21
sbag1
(g8
g3
NtRp1581
(dp1582
g11
g12
sg13
VTeX Gyre Cursor
p1583
sg15
I700
sg16
g12
sg17
g12
sg18
V/usr/share/texmf/fonts/opentype/public/tex-gyre/texgyrecursor-bold.otf
p1584
sg20
g21
sbag1
(g8
g3
NtRp1585
(dp1586
g11
g12
sg13
VTeX Gyre Adventor
p1587
sg15
I400
sg16
g12
sg17
g12
sg18
V/usr/share/texmf/fonts/opentype/public/tex-gyre/texgyreadventor-regular.otf
p1588
sg20
g21
sbag1
(g8
g3
NtRp1589
(dp1590
g11
g53
sg13
VAmiri
p1591
sg15
I700
sg16
g12
sg17
g12
sg18
V/usr/share/fonts/opentype/fonts-hosny-amiri/amiri-boldslanted.ttf
p1592
sg20
g21
sbag1
(g8
g3
NtRp1593
(dp1594
g11
g24
sg13
VLatin Modern Mono Light Cond
p1595
sg15
I200
sg16
g167
sg17
g12
sg18
V/usr/share/texmf/fonts/opentype/public/lm/lmmonoltcond10-oblique.otf
p1596
sg20
g21
sbag1
(g8
g3
NtRp1597
(dp1598
g11
g24
sg13
VLoma
p1599
sg15
I700
sg16
g12
sg17
g12
sg18
V/usr/share/fonts/truetype/tlwg/Loma-BoldOblique.ttf
p1600
sg20
g21
sbag1
(g8
g3
NtRp1601
(dp1602
g11
g12
sg13
VTlwg Typewriter
p1603
sg15
I400
sg16
g12
sg17
g12
sg18
V/usr/share/fonts/truetype/tlwg/TlwgTypewriter.ttf
p1604
sg20
g21
sbag1
(g8
g3
NtRp1605
(dp1606
g11
g12
sg13
VAccanthis ADF Std No2
p1607
sg15
I400
sg16
g12
sg17
g12
sg18
V/usr/share/fonts/truetype/adf/AccanthisADFStdNo2-Regular.otf
p1608
sg20
g21
sbag1
(g8
g3
NtRp1609
(dp1610
g11
g12
sg13
VMathJax_Fraktur
p1611
sg15
I400
sg16
g12
sg17
g12
sg18
V/usr/share/fonts/opentype/mathjax/MathJax_Fraktur-Regular.otf
p1612
sg20
g21
sbag1
(g8
g3
NtRp1613
(dp1614
g11
g12
sg13
VLatin Modern Roman
p1615
sg15
I700
sg16
g12
sg17
g12
sg18
V/usr/share/texmf/fonts/opentype/public/lm/lmroman7-bold.otf
p1616
sg20
g21
sbag1
(g8
g3
NtRp1617
(dp1618
g11
g53
sg13
VEB Garamond
p1619
sg15
I400
sg16
g12
sg17
g12
sg18
V/usr/share/fonts/truetype/ebgaramond/EBGaramond08-Italic.ttf
p1620
sg20
g21
sbag1
(g8
g3
NtRp1621
(dp1622
g11
g12
sg13
VMathJax_SansSerif
p1623
sg15
I700
sg16
g12
sg17
g12
sg18
V/usr/share/fonts/opentype/mathjax/MathJax_SansSerif-Bold.otf
p1624
sg20
g21
sbag1
(g8
g3
NtRp1625
(dp1626
g11
g12
sg13
VLatin Modern Roman
p1627
sg15
I700
sg16
g12
sg17
g12
sg18
V/usr/share/texmf/fonts/opentype/public/lm/lmroman9-bold.otf
p1628
sg20
g21
sbag1
(g8
g3
NtRp1629
(dp1630
g11
g12
sg13
VIPAPGothic
p1631
sg15
I400
sg16
g12
sg17
g12
sg18
V/usr/share/fonts/opentype/ipafont-gothic/ipagp.ttf
p1632
sg20
g21
sbag1
(g8
g3
NtRp1633
(dp1634
g11
g53
sg13
VGFS Artemisia
p1635
sg15
I400
sg16
g12
sg17
g12
sg18
V/usr/share/fonts/truetype/artemisia/GFSArtemisiaIt.otf
p1636
sg20
g21
sbag1
(g8
g3
NtRp1637
(dp1638
g11
g12
sg13
VMathJax_Fraktur
p1639
sg15
I700
sg16
g12
sg17
g12
sg18
V/usr/share/fonts/opentype/mathjax/MathJax_Fraktur-Bold.otf
p1640
sg20
g21
sbag1
(g8
g3
NtRp1641
(dp1642
g11
g12
sg13
VGentiumAlt
p1643
sg15
I400
sg16
g12
sg17
g12
sg18
V/usr/share/fonts/truetype/gentium/GentiumAlt-R.ttf
p1644
sg20
g21
sbag1
(g8
g3
NtRp1645
(dp1646
g11
g12
sg13
VGFS Didot
p1647
sg15
I700
sg16
g12
sg17
g12
sg18
V/usr/share/fonts/truetype/didot/GFSDidotBold.otf
p1648
sg20
g21
sbag1
(g8
g3
NtRp1649
(dp1650
g11
g24
sg13
VLatin Modern Sans
p1651
sg15
I400
sg16
g12
sg17
g12
sg18
V/usr/share/texmf/fonts/opentype/public/lm/lmsans8-oblique.otf
p1652
sg20
g21
sbag1
(g8
g3
NtRp1653
(dp1654
g11
g12
sg13
VUnDotum
p1655
sg15
I700
sg16
g12
sg17
g12
sg18
V/usr/share/fonts/truetype/unfonts-core/UnDotumBold.ttf
p1656
sg20
g21
sbag1
(g8
g3
NtRp1657
(dp1658
g11
g53
sg13
VRoboto
p1659
sg15
I400
sg16
g12
sg17
g12
sg18
V/usr/share/fonts/truetype/roboto/hinted/Roboto-Italic.ttf
p1660
sg20
g21
sbag1
(g8
g3
NtRp1661
(dp1662
g11
g24
sg13
VCMU Sans Serif
p1663
sg15
I700
sg16
g12
sg17
g12
sg18
V/usr/share/fonts/truetype/cmu/cmunso.ttf
p1664
sg20
g21
sbag1
(g8
g3
NtRp1665
(dp1666
g11
g12
sg13
VUme P Mincho
p1667
sg15
I400
sg16
g12
sg17
g12
sg18
V/usr/share/fonts/truetype/horai-umefont/ume-pmo3.ttf
p1668
sg20
g21
sbag1
(g8
g3
NtRp1669
(dp1670
g11
g24
sg13
VFreeMono
p1671
sg15
I700
sg16
g12
sg17
g12
sg18
V/usr/share/fonts/truetype/freefont/FreeMonoBoldOblique.ttf
p1672
sg20
g21
sbag1
(g8
g3
NtRp1673
(dp1674
g11
g12
sg13
VRoboto
p1675
sg15
I400
sg16
g12
sg17
g12
sg18
V/usr/share/fonts/truetype/roboto/hinted/Roboto-Regular.ttf
p1676
sg20
g21
sbag1
(g8
g3
NtRp1677
(dp1678
g11
g53
sg13
VAccanthis ADF Std No3
p1679
sg15
I700
sg16
g12
sg17
g12
sg18
V/usr/share/fonts/truetype/adf/AccanthisADFStdNo3-BoldItalic.otf
p1680
sg20
g21
sbag1
(g8
g3
NtRp1681
(dp1682
g11
g53
sg13
VGillius ADF Cd
p1683
sg15
I700
sg16
g12
sg17
g12
sg18
V/usr/share/fonts/truetype/adf/GilliusADFCd-BoldItalic.otf
p1684
sg20
g21
sbag1
(g8
g3
NtRp1685
(dp1686
g11
g12
sg13
VTeX Gyre Schola
p1687
sg15
I700
sg16
g12
sg17
g12
sg18
V/usr/share/texmf/fonts/opentype/public/tex-gyre/texgyreschola-bold.otf
p1688
sg20
g21
sbag1
(g8
g3
NtRp1689
(dp1690
g11
g12
sg13
VMathJax_Size2
p1691
sg15
I400
sg16
g12
sg17
g12
sg18
V/usr/share/fonts/opentype/mathjax/MathJax_Size2-Regular.otf
p1692
sg20
g21
sbag1
(g8
g3
NtRp1693
(dp1694
g11
g12
sg13
VMathJax_Size3
p1695
sg15
I400
sg16
g12
sg17
g12
sg18
V/usr/share/fonts/opentype/mathjax/MathJax_Size3-Regular.otf
p1696
sg20
g21
sbag1
(g8
g3
NtRp1697
(dp1698
g11
g12
sg13
VGFS Gazis
p1699
sg15
I400
sg16
g12
sg17
g12
sg18
V/usr/share/fonts/truetype/gazis/GFSGazis.otf
p1700
sg20
g21
sbag1
(g8
g3
NtRp1701
(dp1702
g11
g12
sg13
VAmiri Quran
p1703
sg15
I400
sg16
g12
sg17
g12
sg18
V/usr/share/fonts/opentype/fonts-hosny-amiri/amiri-quran.ttf
p1704
sg20
g21
sbag1
(g8
g3
NtRp1705
(dp1706
g11
g53
sg13
VDejaVu Serif
p1707
sg15
I400
sg16
g167
sg17
g12
sg18
V/usr/share/fonts/truetype/dejavu/DejaVuSerifCondensed-Italic.ttf
p1708
sg20
g21
sbag1
(g8
g3
NtRp1709
(dp1710
g11
g12
sg13
VKacstArt
p1711
sg15
I400
sg16
g12
sg17
g12
sg18
V/usr/share/fonts/truetype/kacst/KacstArt.ttf
p1712
sg20
g21
sbag1
(g8
g3
NtRp1713
(dp1714
g11
g53
sg13
VLiberation Sans Narrow
p1715
sg15
I700
sg16
g167
sg17
g12
sg18
V/usr/share/fonts/truetype/liberation/LiberationSansNarrow-BoldItalic.ttf
p1716
sg20
g21
sbag1
(g8
g3
NtRp1717
(dp1718
g11
g24
sg13
VCMU Bright
p1719
sg15
I400
sg16
g12
sg17
g12
sg18
V/usr/share/fonts/truetype/cmu/cmunbmo.ttf
p1720
sg20
g21
sbag1
(g8
g3
NtRp1721
(dp1722
g11
g12
sg13
VLatin Modern Roman Dunhill
p1723
sg15
I400
sg16
g12
sg17
g12
sg18
V/usr/share/texmf/fonts/opentype/public/lm/lmromandunh10-regular.otf
p1724
sg20
g21
sbag1
(g8
g3
NtRp1725
(dp1726
g11
g12
sg13
VSTIXIntegralsSm
p1727
sg15
I700
sg16
g12
sg17
g12
sg18
V/usr/share/fonts/opentype/stix/STIXIntegralsSm-Bold.otf
p1728
sg20
g21
sbag1
(g8
g3
NtRp1729
(dp1730
g11
g12
sg13
VRoboto Condensed
p1731
sg15
I700
sg16
g167
sg17
g12
sg18
V/usr/share/fonts/truetype/roboto/hinted/RobotoCondensed-Bold.ttf
p1732
sg20
g21
sbag1
(g8
g3
NtRp1733
(dp1734
g11
g12
sg13
VLiberation Sans
p1735
sg15
I400
sg16
g12
sg17
g12
sg18
V/usr/share/fonts/truetype/liberation/LiberationSans-Regular.ttf
p1736
sg20
g21
sbag1
(g8
g3
NtRp1737
(dp1738
g11
g12
sg13
VUbuntu Condensed
p1739
sg15
I400
sg16
g167
sg17
g12
sg18
V/usr/share/fonts/truetype/ubuntu-font-family/Ubuntu-C.ttf
p1740
sg20
g21
sbag1
(g8
g3
NtRp1741
(dp1742
g11
g12
sg13
VLatin Modern Sans
p1743
sg15
I400
sg16
g12
sg17
g12
sg18
V/usr/share/texmf/fonts/opentype/public/lm/lmsans17-regular.otf
p1744
sg20
g21
sbag1
(g8
g3
NtRp1745
(dp1746
g11
g53
sg13
VCaladea
p1747
sg15
I400
sg16
g12
sg17
g12
sg18
V/usr/share/fonts/truetype/crosextra/Caladea-Italic.ttf
p1748
sg20
g21
sbag1
(g8
g3
NtRp1749
(dp1750
g11
g12
sg13
VMathJax_Main
p1751
sg15
I700
sg16
g12
sg17
g12
sg18
V/usr/share/fonts/opentype/mathjax/MathJax_Main-Bold.otf
p1752
sg20
g21
sbag1
(g8
g3
NtRp1753
(dp1754
g11
g53
sg13
VCMU Serif
p1755
sg15
I700
sg16
g12
sg17
g12
sg18
V/usr/share/fonts/truetype/cmu/cmunbi.ttf
p1756
sg20
g21
sbag1
(g8
g3
NtRp1757
(dp1758
g11
g12
sg13
VIPAexMincho
p1759
sg15
I400
sg16
g12
sg17
g12
sg18
V/usr/share/fonts/opentype/ipaexfont-mincho/ipaexm.ttf
p1760
sg20
g21
sbag1
(g8
g3
NtRp1761
(dp1762
g11
g12
sg13
VEB Garamond
p1763
sg15
I400
sg16
g12
sg17
g12
sg18
V/usr/share/fonts/opentype/ebgaramond/EBGaramond12-Regular.otf
p1764
sg20
g21
sbag1
(g8
g3
NtRp1765
(dp1766
g11
g53
sg13
VGentiumAlt
p1767
sg15
I400
sg16
g12
sg17
g12
sg18
V/usr/share/fonts/truetype/gentium/GentiumAlt-I.ttf
p1768
sg20
g21
sbag1
(g8
g3
NtRp1769
(dp1770
g11
g12
sg13
VKinnari
p1771
sg15
I700
sg16
g12
sg17
g12
sg18
V/usr/share/fonts/truetype/tlwg/Kinnari-Bold.ttf
p1772
sg20
g21
sbag1
(g8
g3
NtRp1773
(dp1774
g11
g53
sg13
VLobster Two
p1775
sg15
I700
sg16
g12
sg17
g12
sg18
V/usr/share/fonts/opentype/lobster/lobster.otf
p1776
sg20
g21
sbag1
(g8
g3
NtRp1777
(dp1778
g11
g12
sg13
VPurisa
p1779
sg15
I700
sg16
g12
sg17
g12
sg18
V/usr/share/fonts/truetype/tlwg/Purisa-Bold.ttf
p1780
sg20
g21
sbag1
(g8
g3
NtRp1781
(dp1782
g11
g24
sg13
VTlwg Typewriter
p1783
sg15
I700
sg16
g12
sg17
g12
sg18
V/usr/share/fonts/truetype/tlwg/TlwgTypewriter-BoldOblique.ttf
p1784
sg20
g21
sbag1
(g8
g3
NtRp1785
(dp1786
g11
g53
sg13
VGentium Book Basic
p1787
sg15
I400
sg16
g12
sg17
g12
sg18
V/usr/share/fonts/truetype/gentium-basic/GenBkBasI.ttf
p1788
sg20
g21
sbag1
(g8
g3
NtRp1789
(dp1790
g11
g12
sg13
VDejaVu Serif
p1791
sg15
I700
sg16
g12
sg17
g12
sg18
V/usr/share/fonts/truetype/dejavu/DejaVuSerif-Bold.ttf
p1792
sg20
g21
sbag1
(g8
g3
NtRp1793
(dp1794
g11
g12
sg13
VUme Gothic
p1795
sg15
I400
sg16
g12
sg17
g12
sg18
V/usr/share/fonts/truetype/horai-umefont/ume-tgo4.ttf
p1796
sg20
g21
sbag1
(g8
g3
NtRp1797
(dp1798
g11
g12
sg13
VTeX Gyre Chorus
p1799
sg15
I400
sg16
g12
sg17
g12
sg18
V/usr/share/texmf/fonts/opentype/public/tex-gyre/texgyrechorus-mediumitalic.otf
p1800
sg20
g21
sbag1
(g8
g3
NtRp1801
(dp1802
g11
g12
sg13
VIPAMincho
p1803
sg15
I400
sg16
g12
sg17
g12
sg18
V/usr/share/fonts/opentype/ipafont-mincho/ipam.ttf
p1804
sg20
g21
sbag1
(g8
g3
NtRp1805
(dp1806
g11
g12
sg13
VLatin Modern Roman Slanted
p1807
sg15
I400
sg16
g12
sg17
g12
sg18
V/usr/share/texmf/fonts/opentype/public/lm/lmromanslant10-regular.otf
p1808
sg20
g21
sbag1
(g8
g3
NtRp1809
(dp1810
g11
g12
sg13
VUme Gothic C4
p1811
sg15
I400
sg16
g12
sg17
g12
sg18
V/usr/share/fonts/truetype/horai-umefont/ume-tgc4.ttf
p1812
sg20
g21
sbag1
(g8
g3
NtRp1813
(dp1814
g11
g53
sg13
VTeX Gyre Adventor
p1815
sg15
I400
sg16
g12
sg17
g12
sg18
V/usr/share/texmf/fonts/opentype/public/tex-gyre/texgyreadventor-italic.otf
p1816
sg20
g21
sbag1
(g8
g3
NtRp1817
(dp1818
g11
g24
sg13
VSawasdee
p1819
sg15
I700
sg16
g12
sg17
g12
sg18
V/usr/share/fonts/truetype/tlwg/Sawasdee-BoldOblique.ttf
p1820
sg20
g21
sbag1
(g8
g3
NtRp1821
(dp1822
g11
g12
sg13
VSawasdee
p1823
sg15
I700
sg16
g12
sg17
g12
sg18
V/usr/share/fonts/truetype/tlwg/Sawasdee-Bold.ttf
p1824
sg20
g21
sbag1
(g8
g3
NtRp1825
(dp1826
g11
g12
sg13
VSTIXIntegralsSm
p1827
sg15
I400
sg16
g12
sg17
g12
sg18
V/usr/share/fonts/opentype/stix/STIXIntegralsSm-Regular.otf
p1828
sg20
g21
sbag1
(g8
g3
NtRp1829
(dp1830
g11
g24
sg13
VLatin Modern Sans
p1831
sg15
I700
sg16
g12
sg17
g12
sg18
V/usr/share/texmf/fonts/opentype/public/lm/lmsans10-boldoblique.otf
p1832
sg20
g21
sbag1
(g8
g3
NtRp1833
(dp1834
g11
g12
sg13
VAccanthis ADF Std
p1835
sg15
I700
sg16
g12
sg17
g12
sg18
V/usr/share/fonts/truetype/adf/AccanthisADFStd-Bold.otf
p1836
sg20
g21
sbag1
(g8
g3
NtRp1837
(dp1838
g11
g12
sg13
VNanumMyeongjo
p1839
sg15
I400
sg16
g12
sg17
g12
sg18
V/usr/share/fonts/truetype/nanum/NanumMyeongjo.ttf
p1840
sg20
g21
sbag1
(g8
g3
NtRp1841
(dp1842
g11
g12
sg13
VLinux Libertine Mono O
p1843
sg15
I400
sg16
g12
sg17
g12
sg18
V/usr/share/fonts/opentype/linux-libertine/LinLibertine_M.otf
p1844
sg20
g21
sbag1
(g8
g3
NtRp1845
(dp1846
g11
g24
sg13
VUniversalis ADF Std
p1847
sg15
I700
sg16
g12
sg17
g12
sg18
V/usr/share/fonts/truetype/adf/UniversalisADFStd-BoldOblique.otf
p1848
sg20
g21
sbag1
(g8
g3
NtRp1849
(dp1850
g11
g12
sg13
VGFS Neohellenic
p1851
sg15
I700
sg16
g12
sg17
g12
sg18
V/usr/share/fonts/truetype/neohellenic/GFSNeohellenicBold.otf
p1852
sg20
g21
sbag1
(g8
g3
NtRp1853
(dp1854
g11
g12
sg13
VGFS Complutum
p1855
sg15
I400
sg16
g12
sg17
g12
sg18
V/usr/share/fonts/truetype/complutum/GFSPolyglot.otf
p1856
sg20
g21
sbag1
(g8
g3
NtRp1857
(dp1858
g11
g12
sg13
VLoma
p1859
sg15
I700
sg16
g12
sg17
g12
sg18
V/usr/share/fonts/truetype/tlwg/Loma-Bold.ttf
p1860
sg20
g21
sbag1
(g8
g3
NtRp1861
(dp1862
g11
g12
sg13
VUme P Gothic S4
p1863
sg15
I400
sg16
g12
sg17
g12
sg18
V/usr/share/fonts/truetype/horai-umefont/ume-pgs4.ttf
p1864
sg20
g21
sbag1
(g8
g3
NtRp1865
(dp1866
g11
g12
sg13
VKacstPen
p1867
sg15
I400
sg16
g12
sg17
g12
sg18
V/usr/share/fonts/truetype/kacst/KacstPen.ttf
p1868
sg20
g21
sbag1
(g8
g3
NtRp1869
(dp1870
g11
g12
sg13
VSTIXSizeFourSym
p1871
sg15
I400
sg16
g12
sg17
g12
sg18
V/usr/share/fonts/opentype/stix/STIXSizeFourSym-Regular.otf
p1872
sg20
g21
sbag1
(g8
g3
NtRp1873
(dp1874
g11
g12
sg13
VCarlito
p1875
sg15
I700
sg16
g12
sg17
g12
sg18
V/usr/share/fonts/truetype/crosextra/Carlito-Bold.ttf
p1876
sg20
g21
sbag1
(g8
g3
NtRp1877
(dp1878
g11
g53
sg13
VLinux Libertine O
p1879
sg15
I700
sg16
g12
sg17
g12
sg18
V/usr/share/fonts/opentype/linux-libertine/LinLibertine_RBI.otf
p1880
sg20
g21
sbag1
(g8
g3
NtRp1881
(dp1882
g11
g12
sg13
VIPAPMincho
p1883
sg15
I400
sg16
g12
sg17
g12
sg18
V/usr/share/fonts/opentype/ipafont-mincho/ipamp.ttf
p1884
sg20
g21
sbag1
(g8
g3
NtRp1885
(dp1886
g11
g53
sg13
VFreeSerif
p1887
sg15
I400
sg16
g12
sg17
g12
sg18
V/usr/share/fonts/truetype/freefont/FreeSerifItalic.ttf
p1888
sg20
g21
sbag1
(g8
g3
NtRp1889
(dp1890
g11
g53
sg13
VCabin
p1891
sg15
I700
sg16
g12
sg17
g12
sg18
V/usr/share/fonts/opentype/cabin/Cabin-BoldItalic.otf
p1892
sg20
g21
sbag1
(g8
g3
NtRp1893
(dp1894
g11
g24
sg13
VLatin Modern Roman Caps
p1895
sg15
I500
sg16
g12
sg17
g12
sg18
V/usr/share/texmf/fonts/opentype/public/lm/lmromancaps10-oblique.otf
p1896
sg20
g21
sbag1
(g8
g3
NtRp1897
(dp1898
g11
g53
sg13
VCaladea
p1899
sg15
I700
sg16
g12
sg17
g12
sg18
V/usr/share/fonts/truetype/crosextra/Caladea-BoldItalic.ttf
p1900
sg20
g21
sbag1
(g8
g3
NtRp1901
(dp1902
g11
g12
sg13
VKacstDecorative
p1903
sg15
I400
sg16
g12
sg17
g12
sg18
V/usr/share/fonts/truetype/kacst/KacstDecorative.ttf
p1904
sg20
g21
sbag1
(g8
g3
NtRp1905
(dp1906
g11
g12
sg13
VEB Garamond Initials Fill2
p1907
sg15
I400
sg16
g12
sg17
g12
sg18
V/usr/share/fonts/truetype/ebgaramond/EBGaramond-InitialsF2.ttf
p1908
sg20
g21
sbag1
(g8
g3
NtRp1909
(dp1910
g11
g53
sg13
VLiberation Sans Narrow
p1911
sg15
I400
sg16
g167
sg17
g12
sg18
V/usr/share/fonts/truetype/liberation/LiberationSansNarrow-Italic.ttf
p1912
sg20
g21
sbag1
(g8
g3
NtRp1913
(dp1914
g11
g12
sg13
VCMU Concrete
p1915
sg15
I700
sg16
g12
sg17
g12
sg18
V/usr/share/fonts/truetype/cmu/cmunobx.ttf
p1916
sg20
g21
sbag1
(g8
g3
NtRp1917
(dp1918
g11
g53
sg13
VTeX Gyre Cursor
p1919
sg15
I400
sg16
g12
sg17
g12
sg18
V/usr/share/texmf/fonts/opentype/public/tex-gyre/texgyrecursor-italic.otf
p1920
sg20
g21
sbag1
(g8
g3
NtRp1921
(dp1922
g11
g53
sg13
VCMU Serif Extra
p1923
sg15
I700
sg16
g12
sg17
g12
sg18
V/usr/share/fonts/truetype/cmu/cmunbl.ttf
p1924
sg20
g21
sbag1
(g8
g3
NtRp1925
(dp1926
g11
g12
sg13
VLatin Modern Roman
p1927
sg15
I400
sg16
g12
sg17
g12
sg18
V/usr/share/texmf/fonts/opentype/public/lm/lmroman6-regular.otf
p1928
sg20
g21
sbag1
(g8
g3
NtRp1929
(dp1930
g11
g53
sg13
VDejaVu Serif
p1931
sg15
I700
sg16
g167
sg17
g12
sg18
V/usr/share/fonts/truetype/dejavu/DejaVuSerifCondensed-BoldItalic.ttf
p1932
sg20
g21
sbag1
(g8
g3
NtRp1933
(dp1934
g11
g53
sg13
VRoboto
p1935
sg15
I500
sg16
g12
sg17
g12
sg18
V/usr/share/fonts/truetype/roboto/hinted/Roboto-MediumItalic.ttf
p1936
sg20
g21
sbag1
(g8
g3
NtRp1937
(dp1938
g11
g12
sg13
VSTIXIntegralsUpSm
p1939
sg15
I400
sg16
g12
sg17
g12
sg18
V/usr/share/fonts/opentype/stix/STIXIntegralsUpSm-Regular.otf
p1940
sg20
g21
sbag1
(g8
g3
NtRp1941
(dp1942
g11
g12
sg13
VMathJax_SansSerif
p1943
sg15
I400
sg16
g12
sg17
g12
sg18
V/usr/share/fonts/opentype/mathjax/MathJax_SansSerif-Regular.otf
p1944
sg20
g21
sbag1
(g8
g3
NtRp1945
(dp1946
g11
g53
sg13
VJunicode
p1947
sg15
I400
sg16
g12
sg17
g12
sg18
V/usr/share/fonts/truetype/junicode/Junicode-Italic.ttf
p1948
sg20
g21
sbag1
(g8
g3
NtRp1949
(dp1950
g11
g12
sg13
VLiberation Sans Narrow
p1951
sg15
I400
sg16
g167
sg17
g12
sg18
V/usr/share/fonts/truetype/liberation/LiberationSansNarrow-Regular.ttf
p1952
sg20
g21
sbag1
(g8
g3
NtRp1953
(dp1954
g11
g24
sg13
VLatin Modern Mono Light
p1955
sg15
I200
sg16
g12
sg17
g12
sg18
V/usr/share/texmf/fonts/opentype/public/lm/lmmonolt10-oblique.otf
p1956
sg20
g21
sbag1
(g8
g3
NtRp1957
(dp1958
g11
g12
sg13
VFreeMono
p1959
sg15
I400
sg16
g12
sg17
g12
sg18
V/usr/share/fonts/opentype/freefont/FreeMono.otf
p1960
sg20
g21
sbag1
(g8
g3
NtRp1961
(dp1962
g11
g12
sg13
VLato
p1963
sg15
I400
sg16
g12
sg17
g12
sg18
V/usr/share/fonts/truetype/lato/Lato-Regular.ttf
p1964
sg20
g21
sbag1
(g8
g3
NtRp1965
(dp1966
g11
g24
sg13
VUmpush
p1967
sg15
I200
sg16
g12
sg17
g12
sg18
V/usr/share/fonts/truetype/tlwg/Umpush-LightOblique.ttf
p1968
sg20
g21
sbag1
(g8
g3
NtRp1969
(dp1970
g11
g12
sg13
VUniversalis ADF Std
p1971
sg15
I400
sg16
g12
sg17
g12
sg18
V/usr/share/fonts/truetype/adf/UniversalisADFStd-Regular.otf
p1972
sg20
g21
sbag1
(g8
g3
NtRp1973
(dp1974
g11
g53
sg13
VTeX Gyre Bonum
p1975
sg15
I400
sg16
g12
sg17
g12
sg18
V/usr/share/texmf/fonts/opentype/public/tex-gyre/texgyrebonum-italic.otf
p1976
sg20
g21
sbag1
(g8
g3
NtRp1977
(dp1978
g11
g12
sg13
VTlwg Typo
p1979
sg15
I400
sg16
g12
sg17
g12
sg18
V/usr/share/fonts/truetype/tlwg/TlwgTypo.ttf
p1980
sg20
g21
sbag1
(g8
g3
NtRp1981
(dp1982
g11
g53
sg13
VGentium Plus
p1983
sg15
I400
sg16
g12
sg17
g12
sg18
V/usr/share/fonts/opentype/gentiumplus/GentiumPlus-I.ttf
p1984
sg20
g21
sbag1
(g8
g3
NtRp1985
(dp1986
g11
g53
sg13
VLato
p1987
sg15
I400
sg16
g12
sg17
g12
sg18
V/usr/share/fonts/truetype/lato/Lato-Italic.ttf
p1988
sg20
g21
sbag1
(g8
g3
NtRp1989
(dp1990
g11
g24
sg13
VFreeSans
p1991
sg15
I400
sg16
g12
sg17
g12
sg18
V/usr/share/fonts/truetype/freefont/FreeSansOblique.ttf
p1992
sg20
g21
sbag1
(g8
g3
NtRp1993
(dp1994
g11
g12
sg13
VGentium Basic
p1995
sg15
I700
sg16
g12
sg17
g12
sg18
V/usr/share/fonts/truetype/gentium-basic/GenBasB.ttf
p1996
sg20
g21
sbag1
(g8
g3
NtRp1997
(dp1998
g11
g24
sg13
VLatin Modern Roman Dunhill
p1999
sg15
I500
sg16
g12
sg17
g12
sg18
V/usr/share/texmf/fonts/opentype/public/lm/lmromandunh10-oblique.otf
p2000
sg20
g21
sbag1
(g8
g3
NtRp2001
(dp2002
g11
g12
sg13
VLiberation Sans
p2003
sg15
I700
sg16
g12
sg17
g12
sg18
V/usr/share/fonts/truetype/liberation/LiberationSans-Bold.ttf
p2004
sg20
g21
sbag1
(g8
g3
NtRp2005
(dp2006
g11
g12
sg13
VAccanthis ADF Std No3
p2007
sg15
I700
sg16
g12
sg17
g12
sg18
V/usr/share/fonts/truetype/adf/AccanthisADFStdNo3-Bold.otf
p2008
sg20
g21
sbag1
(g8
g3
NtRp2009
(dp2010
g11
g12
sg13
VLiberation Mono
p2011
sg15
I400
sg16
g12
sg17
g12
sg18
V/usr/share/fonts/truetype/liberation/LiberationMono-Regular.ttf
p2012
sg20
g21
sbag1
(g8
g3
NtRp2013
(dp2014
g11
g12
sg13
VRoboto
p2015
sg15
I700
sg16
g12
sg17
g12
sg18
V/usr/share/fonts/truetype/roboto/hinted/Roboto-Bold.ttf
p2016
sg20
g21
sbag1
(g8
g3
NtRp2017
(dp2018
g11
g12
sg13
VMathJax_Typewriter
p2019
sg15
I400
sg16
g12
sg17
g12
sg18
V/usr/share/fonts/opentype/mathjax/MathJax_Typewriter-Regular.otf
p2020
sg20
g21
sbag1
(g8
g3
NtRp2021
(dp2022
g11
g12
sg13
VSTIXVariants
p2023
sg15
I400
sg16
g12
sg17
g12
sg18
V/usr/share/fonts/opentype/stix/STIXVariants-Regular.otf
p2024
sg20
g21
sbag1
(g8
g3
NtRp2025
(dp2026
g11
g12
sg13
VLatin Modern Sans
p2027
sg15
I400
sg16
g12
sg17
g12
sg18
V/usr/share/texmf/fonts/opentype/public/lm/lmsans10-regular.otf
p2028
sg20
g21
sbag1
(g8
g3
NtRp2029
(dp2030
g11
g53
sg13
Vrsfs10
p2031
sg15
I400
sg16
g12
sg17
g12
sg18
V/usr/share/fonts/truetype/lyx/rsfs10.ttf
p2032
sg20
g21
sbag1
(g8
g3
NtRp2033
(dp2034
g11
g12
sg13
VGentium Book Basic
p2035
sg15
I700
sg16
g12
sg17
g12
sg18
V/usr/share/fonts/truetype/gentium-basic/GenBkBasB.ttf
p2036
sg20
g21
sbag1
(g8
g3
NtRp2037
(dp2038
g11
g12
sg13
VUme Mincho
p2039
sg15
I400
sg16
g12
sg17
g12
sg18
V/usr/share/fonts/truetype/horai-umefont/ume-tmo3.ttf
p2040
sg20
g21
sbag1
(g8
g3
NtRp2041
(dp2042
g11
g12
sg13
VGaruda
p2043
sg15
I400
sg16
g12
sg17
g12
sg18
V/usr/share/fonts/truetype/tlwg/Garuda.ttf
p2044
sg20
g21
sbag1
(g8
g3
NtRp2045
(dp2046
g11
g12
sg13
Vmry_KacstQurn
p2047
sg15
I400
sg16
g12
sg17
g12
sg18
V/usr/share/fonts/truetype/kacst/mry_KacstQurn.ttf
p2048
sg20
g21
sbag1
(g8
g3
NtRp2049
(dp2050
g11
g24
sg13
VLatin Modern Sans
p2051
sg15
I400
sg16
g12
sg17
g12
sg18
V/usr/share/texmf/fonts/opentype/public/lm/lmsans10-oblique.otf
p2052
sg20
g21
sbag1
(g8
g3
NtRp2053
(dp2054
g11
g12
sg13
VTibetan Machine Uni
p2055
sg15
I400
sg16
g12
sg17
g12
sg18
V/usr/share/fonts/truetype/tibetan-machine/TibetanMachineUni.ttf
p2056
sg20
g21
sbag1
(g8
g3
NtRp2057
(dp2058
g11
g12
sg13
VLohit Punjabi
p2059
sg15
I400
sg16
g12
sg17
g12
sg18
V/usr/share/fonts/truetype/lohit-punjabi/Lohit-Punjabi.ttf
p2060
sg20
g21
sbag1
(g8
g3
NtRp2061
(dp2062
g11
g53
sg13
VCabin
p2063
sg15
I700
sg16
g12
sg17
g12
sg18
V/usr/share/fonts/opentype/cabin/Cabin-SemiBoldItalic.otf
p2064
sg20
g21
sbag1
(g8
g3
NtRp2065
(dp2066
g11
g12
sg13
VLatin Modern Sans Quotation
p2067
sg15
I400
sg16
g12
sg17
g12
sg18
V/usr/share/texmf/fonts/opentype/public/lm/lmsansquot8-regular.otf
p2068
sg20
g21
sbag1
(g8
g3
NtRp2069
(dp2070
g11
g53
sg13
VAccanthis ADF Std
p2071
sg15
I700
sg16
g12
sg17
g12
sg18
V/usr/share/fonts/truetype/adf/AccanthisADFStd-BoldItalic.otf
p2072
sg20
g21
sbag1
(g8
g3
NtRp2073
(dp2074
g11
g12
sg13
VKacstOne
p2075
sg15
I700
sg16
g12
sg17
g12
sg18
V/usr/share/fonts/truetype/kacst-one/KacstOne-Bold.ttf
p2076
sg20
g21
sbag1
(g8
g3
NtRp2077
(dp2078
g11
g12
sg13
VLinux Libertine Display O
p2079
sg15
I400
sg16
g12
sg17
g12
sg18
V/usr/share/fonts/opentype/linux-libertine/LinLibertine_DR.otf
p2080
sg20
g21
sbag1
(g8
g3
NtRp2081
(dp2082
g11
g12
sg13
VUnGraphic
p2083
sg15
I400
sg16
g12
sg17
g12
sg18
V/usr/share/fonts/truetype/unfonts-core/UnGraphic.ttf
p2084
sg20
g21
sbag1
(g8
g3
NtRp2085
(dp2086
g11
g12
sg13
VLatin Modern Sans
p2087
sg15
I400
sg16
g12
sg17
g12
sg18
V/usr/share/texmf/fonts/opentype/public/lm/lmsans8-regular.otf
p2088
sg20
g21
sbag1
(g8
g3
NtRp2089
(dp2090
g11
g12
sg13
VLobster Two
p2091
sg15
I400
sg16
g12
sg17
g12
sg18
V/usr/share/fonts/opentype/lobstertwo/LobsterTwo-Regular.otf
p2092
sg20
g21
sbag1
(g8
g3
NtRp2093
(dp2094
g11
g12
sg13
VLatin Modern Roman
p2095
sg15
I400
sg16
g12
sg17
g12
sg18
V/usr/share/texmf/fonts/opentype/public/lm/lmroman10-regular.otf
p2096
sg20
g21
sbag1
(g8
g3
NtRp2097
(dp2098
g11
g24
sg13
VFreeMono
p2099
sg15
I400
sg16
g12
sg17
g12
sg18
V/usr/share/fonts/opentype/freefont/FreeMonoOblique.otf
p2100
sg20
g21
sbag1
(g8
g3
NtRp2101
(dp2102
g11
g12
sg13
Veufm10
p2103
sg15
I400
sg16
g12
sg17
g12
sg18
V/usr/share/fonts/truetype/lyx/eufm10.ttf
p2104
sg20
g21
sbag1
(g8
g3
NtRp2105
(dp2106
g11
g12
sg13
Vesint10
p2107
sg15
I400
sg16
g12
sg17
g12
sg18
V/usr/share/fonts/truetype/lyx/esint10.ttf
p2108
sg20
g21
sbag1
(g8
g3
NtRp2109
(dp2110
g11
g53
sg13
VCMU Concrete
p2111
sg15
I400
sg16
g12
sg17
g12
sg18
V/usr/share/fonts/truetype/cmu/cmunoti.ttf
p2112
sg20
g21
sbag1
(g8
g3
NtRp2113
(dp2114
g11
g12
sg13
VCMU Sans Serif
p2115
sg15
I400
sg16
g12
sg17
g12
sg18
V/usr/share/fonts/truetype/cmu/cmunss.ttf
p2116
sg20
g21
sbag1
(g8
g3
NtRp2117
(dp2118
g11
g12
sg13
VSTIXIntegralsUpD
p2119
sg15
I400
sg16
g12
sg17
g12
sg18
V/usr/share/fonts/opentype/stix/STIXIntegralsUpD-Regular.otf
p2120
sg20
g21
sbag1
(g8
g3
NtRp2121
(dp2122
g11
g24
sg13
VUniversalis ADF Std
p2123
sg15
I400
sg16
g12
sg17
g12
sg18
V/usr/share/fonts/truetype/adf/UniversalisADFStd-Oblique.otf
p2124
sg20
g21
sbag1
(g8
g3
NtRp2125
(dp2126
g11
g53
sg13
VMathJax_SansSerif
p2127
sg15
I400
sg16
g12
sg17
g12
sg18
V/usr/share/fonts/opentype/mathjax/MathJax_SansSerif-Italic.otf
p2128
sg20
g21
sbag1
(g8
g3
NtRp2129
(dp2130
g11
g12
sg13
VTeX Gyre Schola
p2131
sg15
I400
sg16
g12
sg17
g12
sg18
V/usr/share/texmf/fonts/opentype/public/tex-gyre/texgyreschola-regular.otf
p2132
sg20
g21
sbag1
(g8
g3
NtRp2133
(dp2134
g11
g12
sg13
VLaksaman
p2135
sg15
I700
sg16
g12
sg17
g12
sg18
V/usr/share/fonts/truetype/tlwg/Laksaman-Bold.ttf
p2136
sg20
g21
sbag1
(g8
g3
NtRp2137
(dp2138
g11
g24
sg13
VLatin Modern Roman Demi
p2139
sg15
I600
sg16
g12
sg17
g12
sg18
V/usr/share/texmf/fonts/opentype/public/lm/lmromandemi10-oblique.otf
p2140
sg20
g21
sbag1
(g8
g3
NtRp2141
(dp2142
g11
g12
sg13
VLato
p2143
sg15
I800
sg16
g12
sg17
g12
sg18
V/usr/share/fonts/truetype/lato/Lato-Heavy.ttf
p2144
sg20
g21
sbag1
(g8
g3
NtRp2145
(dp2146
g11
g53
sg13
VGillius ADF
p2147
sg15
I700
sg16
g12
sg17
g12
sg18
V/usr/share/fonts/truetype/adf/GilliusADF-BoldItalic.otf
p2148
sg20
g21
sbag1
(g8
g3
NtRp2149
(dp2150
g11
g53
sg13
VFreeSerif
p2151
sg15
I400
sg16
g12
sg17
g12
sg18
V/usr/share/fonts/opentype/freefont/FreeSerifItalic.otf
p2152
sg20
g21
sbag1
(g8
g3
NtRp2153
(dp2154
g11
g12
sg13
VLatin Modern Roman Slanted
p2155
sg15
I400
sg16
g12
sg17
g12
sg18
V/usr/share/texmf/fonts/opentype/public/lm/lmromanslant17-regular.otf
p2156
sg20
g21
sbag1
(g8
g3
NtRp2157
(dp2158
g11
g53
sg13
VLato
p2159
sg15
I800
sg16
g12
sg17
g12
sg18
V/usr/share/fonts/truetype/lato/Lato-HeavyItalic.ttf
p2160
sg20
g21
sbag1
(g8
g3
NtRp2161
(dp2162
g11
g12
sg13
VGFS Baskerville
p2163
sg15
I400
sg16
g12
sg17
g12
sg18
V/usr/share/fonts/truetype/baskerville/GFSBaskerville.otf
p2164
sg20
g21
sbag1
(g8
g3
NtRp2165
(dp2166
g11
g12
sg13
VRoboto
p2167
sg15
I400
sg16
g12
sg17
g12
sg18
V/usr/share/fonts/truetype/roboto/hinted/Roboto-Thin.ttf
p2168
sg20
g21
sbag1
(g8
g3
NtRp2169
(dp2170
g11
g12
sg13
VGFS Artemisia
p2171
sg15
I400
sg16
g12
sg17
g12
sg18
V/usr/share/fonts/truetype/artemisia/GFSArtemisia.otf
p2172
sg20
g21
sbag1
(g8
g3
NtRp2173
(dp2174
g11
g12
sg13
VCaladea
p2175
sg15
I400
sg16
g12
sg17
g12
sg18
V/usr/share/fonts/truetype/crosextra/Caladea-Regular.ttf
p2176
sg20
g21
sbag1
(g8
g3
NtRp2177
(dp2178
g11
g12
sg13
VIPAexMincho
p2179
sg15
I400
sg16
g12
sg17
g12
sg18
V/usr/share/fonts/truetype/fonts-japanese-mincho.ttf
p2180
sg20
g21
sbag1
(g8
g3
NtRp2181
(dp2182
g11
g12
sg13
VLatin Modern Mono Light
p2183
sg15
I400
sg16
g12
sg17
g12
sg18
V/usr/share/texmf/fonts/opentype/public/lm/lmmonolt10-regular.otf
p2184
sg20
g21
sbag1
(g8
g3
NtRp2185
(dp2186
g11
g12
sg13
VCarlito
p2187
sg15
I400
sg16
g12
sg17
g12
sg18
V/usr/share/fonts/truetype/crosextra/Carlito-Regular.ttf
p2188
sg20
g21
sbag1
(g8
g3
NtRp2189
(dp2190
g11
g12
sg13
VLatin Modern Sans Demi Cond
p2191
sg15
I600
sg16
g167
sg17
g12
sg18
V/usr/share/texmf/fonts/opentype/public/lm/lmsansdemicond10-regular.otf
p2192
sg20
g21
sbag1
(g8
g3
NtRp2193
(dp2194
g11
g53
sg13
VLinux Libertine O
p2195
sg15
I400
sg16
g12
sg17
g12
sg18
V/usr/share/fonts/opentype/linux-libertine/LinLibertine_RI.otf
p2196
sg20
g21
sbag1
(g8
g3
NtRp2197
(dp2198
g11
g12
sg13
VLinux Biolinum O
p2199
sg15
I400
sg16
g12
sg17
g12
sg18
V/usr/share/fonts/opentype/linux-libertine/LinBiolinum_R.otf
p2200
sg20
g21
sbag1
(g8
g3
NtRp2201
(dp2202
g11
g24
sg13
VCMU Bright
p2203
sg15
I700
sg16
g12
sg17
g12
sg18
V/usr/share/fonts/truetype/cmu/cmunbso.ttf
p2204
sg20
g21
sbag1
(g8
g3
NtRp2205
(dp2206
g11
g24
sg13
VLatin Modern Mono Prop Light
p2207
sg15
I200
sg16
g12
sg17
g12
sg18
V/usr/share/texmf/fonts/opentype/public/lm/lmmonoproplt10-oblique.otf
p2208
sg20
g21
sbag1
(g8
g3
NtRp2209
(dp2210
g11
g12
sg13
VRoboto
p2211
sg15
I500
sg16
g12
sg17
g12
sg18
V/usr/share/fonts/truetype/roboto/hinted/Roboto-Medium.ttf
p2212
sg20
g21
sbag1
(g8
g3
NtRp2213
(dp2214
g11
g12
sg13
VLatin Modern Roman
p2215
sg15
I700
sg16
g12
sg17
g12
sg18
V/usr/share/texmf/fonts/opentype/public/lm/lmroman5-bold.otf
p2216
sg20
g21
sbag1
(g8
g3
NtRp2217
(dp2218
g11
g12
sg13
VPadauk
p2219
sg15
I700
sg16
g12
sg17
g12
sg18
V/usr/share/fonts/truetype/padauk/Padauk-bold.ttf
p2220
sg20
g21
sbag1
(g8
g3
NtRp2221
(dp2222
g11
g12
sg13
VDejaVu Sans Mono
p2223
sg15
I400
sg16
g12
sg17
g12
sg18
V/usr/share/fonts/truetype/dejavu/DejaVuSansMono.ttf
p2224
sg20
g21
sbag1
(g8
g3
NtRp2225
(dp2226
g11
g12
sg13
VMathJax_WinIE6
p2227
sg15
I400
sg16
g12
sg17
g12
sg18
V/usr/share/fonts/opentype/mathjax/MathJax_WinIE6-Regular.otf
p2228
sg20
g21
sbag1
(g8
g3
NtRp2229
(dp2230
g11
g24
sg13
VGaruda
p2231
sg15
I400
sg16
g12
sg17
g12
sg18
V/usr/share/fonts/truetype/tlwg/Garuda-Oblique.ttf
p2232
sg20
g21
sbag1
(g8
g3
NtRp2233
(dp2234
g11
g12
sg13
VTeX Gyre Bonum
p2235
sg15
I700
sg16
g12
sg17
g12
sg18
V/usr/share/texmf/fonts/opentype/public/tex-gyre/texgyrebonum-bold.otf
p2236
sg20
g21
sbag1
(g8
g3
NtRp2237
(dp2238
g11
g53
sg13
VRoboto Condensed
p2239
sg15
I400
sg16
g167
sg17
g12
sg18
V/usr/share/fonts/truetype/roboto/hinted/RobotoCondensed-Italic.ttf
p2240
sg20
g21
sbag1
(g8
g3
NtRp2241
(dp2242
g11
g12
sg13
VLatin Modern Mono Prop Light
p2243
sg15
I400
sg16
g12
sg17
g12
sg18
V/usr/share/texmf/fonts/opentype/public/lm/lmmonoproplt10-regular.otf
p2244
sg20
g21
sbag1
(g8
g3
NtRp2245
(dp2246
g11
g12
sg13
VLatin Modern Mono Light
p2247
sg15
I700
sg16
g12
sg17
g12
sg18
V/usr/share/texmf/fonts/opentype/public/lm/lmmonolt10-bold.otf
p2248
sg20
g21
sbag1
(g8
g3
NtRp2249
(dp2250
g11
g12
sg13
VGFS BodoniClassic
p2251
sg15
I400
sg16
g12
sg17
g12
sg18
V/usr/share/fonts/truetype/bodoni-classic/GFSBodoniClassic.otf
p2252
sg20
g21
sbag1
(g8
g3
NtRp2253
(dp2254
g11
g12
sg13
VTeX Gyre Termes
p2255
sg15
I700
sg16
g12
sg17
g12
sg18
V/usr/share/texmf/fonts/opentype/public/tex-gyre/texgyretermes-bold.otf
p2256
sg20
g21
sbag1
(g8
g3
NtRp2257
(dp2258
g11
g12
sg13
VUme Gothic S4
p2259
sg15
I400
sg16
g12
sg17
g12
sg18
V/usr/share/fonts/truetype/horai-umefont/ume-tgs4.ttf
p2260
sg20
g21
sbag1
(g8
g3
NtRp2261
(dp2262
g11
g24
sg13
VUmpush
p2263
sg15
I700
sg16
g12
sg17
g12
sg18
V/usr/share/fonts/truetype/tlwg/Umpush-BoldOblique.ttf
p2264
sg20
g21
sbag1
(g8
g3
NtRp2265
(dp2266
g11
g12
sg13
VUnPilgi
p2267
sg15
I400
sg16
g12
sg17
g12
sg18
V/usr/share/fonts/truetype/unfonts-core/UnPilgi.ttf
p2268
sg20
g21
sbag1
(g8
g3
NtRp2269
(dp2270
g11
g53
sg13
VGillius ADF No2
p2271
sg15
I700
sg16
g12
sg17
g12
sg18
V/usr/share/fonts/truetype/adf/GilliusADFNo2-BoldItalic.otf
p2272
sg20
g21
sbag1
(g8
g3
NtRp2273
(dp2274
g11
g12
sg13
VTlwg Typo
p2275
sg15
I700
sg16
g12
sg17
g12
sg18
V/usr/share/fonts/truetype/tlwg/TlwgTypo-Bold.ttf
p2276
sg20
g21
sbag1
(g8
g3
NtRp2277
(dp2278
g11
g12
sg13
VCabin
p2279
sg15
I700
sg16
g12
sg17
g12
sg18
V/usr/share/fonts/opentype/cabin/Cabin-SemiBold.otf
p2280
sg20
g21
sbag1
(g8
g3
NtRp2281
(dp2282
g11
g53
sg13
VLiberation Serif
p2283
sg15
I400
sg16
g12
sg17
g12
sg18
V/usr/share/fonts/truetype/liberation/LiberationSerif-Italic.ttf
p2284
sg20
g21
sbag1
(g8
g3
NtRp2285
(dp2286
g11
g12
sg13
VTlwg Typewriter
p2287
sg15
I700
sg16
g12
sg17
g12
sg18
V/usr/share/fonts/truetype/tlwg/TlwgTypewriter-Bold.ttf
p2288
sg20
g21
sbag1
(g8
g3
NtRp2289
(dp2290
g11
g24
sg13
VWaree
p2291
sg15
I700
sg16
g12
sg17
g12
sg18
V/usr/share/fonts/truetype/tlwg/Waree-BoldOblique.ttf
p2292
sg20
g21
sbag1
(g8
g3
NtRp2293
(dp2294
g11
g12
sg13
VSTIXNonUnicode
p2295
sg15
I700
sg16
g12
sg17
g12
sg18
V/usr/share/fonts/opentype/stix/STIXNonUnicode-Bold.otf
p2296
sg20
g21
sbag1
(g8
g3
NtRp2297
(dp2298
g11
g53
sg13
VFreeSerif
p2299
sg15
I700
sg16
g12
sg17
g12
sg18
V/usr/share/fonts/truetype/freefont/FreeSerifBoldItalic.ttf
p2300
sg20
g21
sbag1
(g8
g3
NtRp2301
(dp2302
g11
g53
sg13
VGillius ADF Cd
p2303
sg15
I400
sg16
g12
sg17
g12
sg18
V/usr/share/fonts/truetype/adf/GilliusADFCd-Italic.otf
p2304
sg20
g21
sbag1
(g8
g3
NtRp2305
(dp2306
g11
g12
sg13
VCMU Serif Extra
p2307
sg15
I700
sg16
g12
sg17
g12
sg18
V/usr/share/fonts/truetype/cmu/cmunrb.ttf
p2308
sg20
g21
sbag1
(g8
g3
NtRp2309
(dp2310
g11
g12
sg13
VLato
p2311
sg15
I200
sg16
g12
sg17
g12
sg18
V/usr/share/fonts/truetype/lato/Lato-Light.ttf
p2312
sg20
g21
sbag1
(g8
g3
NtRp2313
(dp2314
g11
g24
sg13
VLatin Modern Mono Caps
p2315
sg15
I400
sg16
g12
sg17
g12
sg18
V/usr/share/texmf/fonts/opentype/public/lm/lmmonocaps10-oblique.otf
p2316
sg20
g21
sbag1
(g8
g3
NtRp2317
(dp2318
g11
g12
sg13
VSTIXSizeThreeSym
p2319
sg15
I700
sg16
g12
sg17
g12
sg18
V/usr/share/fonts/opentype/stix/STIXSizeThreeSym-Bold.otf
p2320
sg20
g21
sbag1
(g8
g3
NtRp2321
(dp2322
g11
g12
sg13
VEB Garamond Initials Fill2
p2323
sg15
I400
sg16
g12
sg17
g12
sg18
V/usr/share/fonts/opentype/ebgaramond/EBGaramond-InitialsF2.otf
p2324
sg20
g21
sbag1
(g8
g3
NtRp2325
(dp2326
g11
g12
sg13
VCMU Sans Serif
p2327
sg15
I700
sg16
g12
sg17
g12
sg18
V/usr/share/fonts/truetype/cmu/cmunsx.ttf
p2328
sg20
g21
sbag1
(g8
g3
NtRp2329
(dp2330
g11
g53
sg13
VSTIX
p2331
sg15
I700
sg16
g12
sg17
g12
sg18
V/usr/share/fonts/opentype/stix-word/STIX-BoldItalic.otf
p2332
sg20
g21
sbag1
(g8
g3
NtRp2333
(dp2334
g11
g12
sg13
VRoboto
p2335
sg15
I200
sg16
g12
sg17
g12
sg18
V/usr/share/fonts/truetype/roboto/hinted/Roboto-Light.ttf
p2336
sg20
g21
sbag1
(g8
g3
NtRp2337
(dp2338
g11
g12
sg13
VUme P Gothic O5
p2339
sg15
I400
sg16
g12
sg17
g12
sg18
V/usr/share/fonts/truetype/horai-umefont/ume-pgo5.ttf
p2340
sg20
g21
sbag1
(g8
g3
NtRp2341
(dp2342
g11
g12
sg13
VTeX Gyre Termes Math
p2343
sg15
I400
sg16
g12
sg17
g12
sg18
V/usr/share/texmf/fonts/opentype/public/tex-gyre-math/texgyretermes-math.otf
p2344
sg20
g21
sbag1
(g8
g3
NtRp2345
(dp2346
g11
g24
sg13
VTlwg Typo
p2347
sg15
I400
sg16
g12
sg17
g12
sg18
V/usr/share/fonts/truetype/tlwg/TlwgTypo-Oblique.ttf
p2348
sg20
g21
sbag1
(g8
g3
NtRp2349
(dp2350
g11
g12
sg13
VUme P Gothic S5
p2351
sg15
I400
sg16
g12
sg17
g12
sg18
V/usr/share/fonts/truetype/horai-umefont/ume-pgs5.ttf
p2352
sg20
g21
sbag1
(g8
g3
NtRp2353
(dp2354
g11
g12
sg13
VUme P Gothic C5
p2355
sg15
I400
sg16
g12
sg17
g12
sg18
V/usr/share/fonts/truetype/horai-umefont/ume-pgc5.ttf
p2356
sg20
g21
sbag1
(g8
g3
NtRp2357
(dp2358
g11
g24
sg13
VWaree
p2359
sg15
I400
sg16
g12
sg17
g12
sg18
V/usr/share/fonts/truetype/tlwg/Waree-Oblique.ttf
p2360
sg20
g21
sbag1
(g8
g3
NtRp2361
(dp2362
g11
g24
sg13
VTlwg Typist
p2363
sg15
I400
sg16
g12
sg17
g12
sg18
V/usr/share/fonts/truetype/tlwg/TlwgTypist-Oblique.ttf
p2364
sg20
g21
sbag1
(g8
g3
NtRp2365
(dp2366
g11
g12
sg13
VGFS Neohellenic
p2367
sg15
I400
sg16
g12
sg17
g12
sg18
V/usr/share/fonts/truetype/neohellenic/GFSNeohellenic.otf
p2368
sg20
g21
sbag1
(g8
g3
NtRp2369
(dp2370
g11
g53
sg13
VRoboto
p2371
sg15
I900
sg16
g12
sg17
g12
sg18
V/usr/share/fonts/truetype/roboto/hinted/Roboto-BlackItalic.ttf
p2372
sg20
g21
sbag1
(g8
g3
NtRp2373
(dp2374
g11
g12
sg13
VSymbola
p2375
sg15
I400
sg16
g12
sg17
g12
sg18
V/usr/share/fonts/truetype/ancient-scripts/Symbola_hint.ttf
p2376
sg20
g21
sbag1
(g8
g3
NtRp2377
(dp2378
g11
g53
sg13
VUbuntu
p2379
sg15
I500
sg16
g12
sg17
g12
sg18
V/usr/share/fonts/truetype/ubuntu-font-family/Ubuntu-MI.ttf
p2380
sg20
g21
sbag1
(g8
g3
NtRp2381
(dp2382
g11
g12
sg13
VLatin Modern Roman Unslanted
p2383
sg15
I400
sg16
g12
sg17
g12
sg18
V/usr/share/texmf/fonts/opentype/public/lm/lmromanunsl10-regular.otf
p2384
sg20
g21
sbag1
(g8
g3
NtRp2385
(dp2386
g11
g24
sg13
VLatin Modern Sans
p2387
sg15
I400
sg16
g12
sg17
g12
sg18
V/usr/share/texmf/fonts/opentype/public/lm/lmsans9-oblique.otf
p2388
sg20
g21
sbag1
(g8
g3
NtRp2389
(dp2390
g11
g12
sg13
VGillius ADF No2
p2391
sg15
I400
sg16
g12
sg17
g12
sg18
V/usr/share/fonts/truetype/adf/GilliusADFNo2-Regular.otf
p2392
sg20
g21
sbag1
(g8
g3
NtRp2393
(dp2394
g11
g12
sg13
VSTIXSizeFourSym
p2395
sg15
I700
sg16
g12
sg17
g12
sg18
V/usr/share/fonts/opentype/stix/STIXSizeFourSym-Bold.otf
p2396
sg20
g21
sbag1
(g8
g3
NtRp2397
(dp2398
g11
g24
sg13
VTlwg Mono
p2399
sg15
I700
sg16
g12
sg17
g12
sg18
V/usr/share/fonts/truetype/tlwg/TlwgMono-BoldOblique.ttf
p2400
sg20
g21
sbag1
(g8
g3
NtRp2401
(dp2402
g11
g53
sg13
VCMU Classical Serif
p2403
sg15
I400
sg16
g12
sg17
g12
sg18
V/usr/share/fonts/truetype/cmu/cmunci.ttf
p2404
sg20
g21
sbag1
(g8
g3
NtRp2405
(dp2406
g11
g12
sg13
VCMU Bright
p2407
sg15
I500
sg16
g12
sg17
g12
sg18
V/usr/share/fonts/truetype/cmu/cmunbmr.ttf
p2408
sg20
g21
sbag1
(g8
g3
NtRp2409
(dp2410
g11
g12
sg13
VGFS Didot Classic
p2411
sg15
I400
sg16
g12
sg17
g12
sg18
V/usr/share/fonts/truetype/didot-classic/GFSDidotClassic.otf
p2412
sg20
g21
sbag1
(g8
g3
NtRp2413
(dp2414
g11
g53
sg13
VLinux Biolinum O
p2415
sg15
I400
sg16
g12
sg17
g12
sg18
V/usr/share/fonts/opentype/linux-libertine/LinBiolinum_RI.otf
p2416
sg20
g21
sbag1
(g8
g3
NtRp2417
(dp2418
g11
g12
sg13
VKacstQurn
p2419
sg15
I400
sg16
g12
sg17
g12
sg18
V/usr/share/fonts/truetype/kacst/KacstQurn.ttf
p2420
sg20
g21
sbag1
(g8
g3
NtRp2421
(dp2422
g11
g12
sg13
VTeX Gyre Bonum
p2423
sg15
I400
sg16
g12
sg17
g12
sg18
V/usr/share/texmf/fonts/opentype/public/tex-gyre/texgyrebonum-regular.otf
p2424
sg20
g21
sbag1
(g8
g3
NtRp2425
(dp2426
g11
g24
sg13
VFreeSans
p2427
sg15
I700
sg16
g12
sg17
g12
sg18
V/usr/share/fonts/opentype/freefont/FreeSansBoldOblique.otf
p2428
sg20
g21
sbag1
(g8
g3
NtRp2429
(dp2430
g11
g12
sg13
VPadauk Book
p2431
sg15
I400
sg16
g12
sg17
g12
sg18
V/usr/share/fonts/truetype/padauk/Padauk-book.ttf
p2432
sg20
g21
sbag1
(g8
g3
NtRp2433
(dp2434
g11
g12
sg13
VKacstDigital
p2435
sg15
I400
sg16
g12
sg17
g12
sg18
V/usr/share/fonts/truetype/kacst/KacstDigital.ttf
p2436
sg20
g21
sbag1
(g8
g3
NtRp2437
(dp2438
g11
g12
sg13
VSTIXGeneral
p2439
sg15
I400
sg16
g12
sg17
g12
sg18
V/usr/share/fonts/opentype/stix/STIXGeneral-Regular.otf
p2440
sg20
g21
sbag1
(g8
g3
NtRp2441
(dp2442
g11
g12
sg13
VKacstOffice
p2443
sg15
I400
sg16
g12
sg17
g12
sg18
V/usr/share/fonts/truetype/kacst/KacstOffice.ttf
p2444
sg20
g21
sbag1
(g8
g3
NtRp2445
(dp2446
g11
g12
sg13
VAbyssinica SIL
p2447
sg15
I400
sg16
g12
sg17
g12
sg18
V/usr/share/fonts/truetype/abyssinica/AbyssinicaSIL-R.ttf
p2448
sg20
g21
sbag1
(g8
g3
NtRp2449
(dp2450
g11
g53
sg13
VFreeSerif
p2451
sg15
I700
sg16
g12
sg17
g12
sg18
V/usr/share/fonts/opentype/freefont/FreeSerifBoldItalic.otf
p2452
sg20
g21
sbag1
(g8
g3
NtRp2453
(dp2454
g11
g24
sg13
VCMU Bright
p2455
sg15
I700
sg16
g12
sg17
g12
sg18
V/usr/share/fonts/truetype/cmu/cmunbxo.ttf
p2456
sg20
g21
sbag1
(g8
g3
NtRp2457
(dp2458
g11
g12
sg13
VSTIXIntegralsUpD
p2459
sg15
I700
sg16
g12
sg17
g12
sg18
V/usr/share/fonts/opentype/stix/STIXIntegralsUpD-Bold.otf
p2460
sg20
g21
sbag1
(g8
g3
NtRp2461
(dp2462
g11
g12
sg13
VEB Garamond
p2463
sg15
I400
sg16
g12
sg17
g12
sg18
V/usr/share/fonts/truetype/ebgaramond/EBGaramond08-SC.ttf
p2464
sg20
g21
sbag1
(g8
g3
NtRp2465
(dp2466
g11
g12
sg13
VLoma
p2467
sg15
I400
sg16
g12
sg17
g12
sg18
V/usr/share/fonts/truetype/tlwg/Loma.ttf
p2468
sg20
g21
sbag1
(g8
g3
NtRp2469
(dp2470
g11
g53
sg13
VLaksaman
p2471
sg15
I400
sg16
g12
sg17
g12
sg18
V/usr/share/fonts/truetype/tlwg/Laksaman-Italic.ttf
p2472
sg20
g21
sbag1
(g8
g3
NtRp2473
(dp2474
g11
g12
sg13
VLatin Modern Roman
p2475
sg15
I400
sg16
g12
sg17
g12
sg18
V/usr/share/texmf/fonts/opentype/public/lm/lmroman9-regular.otf
p2476
sg20
g21
sbag1
(g8
g3
NtRp2477
(dp2478
g11
g24
sg13
VTlwg Typo
p2479
sg15
I700
sg16
g12
sg17
g12
sg18
V/usr/share/fonts/truetype/tlwg/TlwgTypo-BoldOblique.ttf
p2480
sg20
g21
sbag1
(g8
g3
NtRp2481
(dp2482
g11
g12
sg13
VFreeMono
p2483
sg15
I700
sg16
g12
sg17
g12
sg18
V/usr/share/fonts/opentype/freefont/FreeMonoBold.otf
p2484
sg20
g21
sbag1
(g8
g3
NtRp2485
(dp2486
g11
g12
sg13
VKacstTitleL
p2487
sg15
I400
sg16
g12
sg17
g12
sg18
V/usr/share/fonts/truetype/kacst/KacstTitleL.ttf
p2488
sg20
g21
sbag1
(g8
g3
NtRp2489
(dp2490
g11
g53
sg13
VMathJax_Math
p2491
sg15
I700
sg16
g12
sg17
g12
sg18
V/usr/share/fonts/opentype/mathjax/MathJax_Math-BoldItalic.otf
p2492
sg20
g21
sbag1
(g8
g3
NtRp2493
(dp2494
g11
g12
sg13
VLatin Modern Roman
p2495
sg15
I400
sg16
g12
sg17
g12
sg18
V/usr/share/texmf/fonts/opentype/public/lm/lmroman17-regular.otf
p2496
sg20
g21
sbasS'defaultFamily'
p2497
(dp2498
Vafm
p2499
VHelvetica
p2500
sVttf
p2501
VBitstream Vera Sans
p2502
ssS'ttffiles'
p2503
(lp2504
g19
ag26
ag30
ag34
ag38
ag42
ag46
ag50
ag55
ag59
ag63
ag67
ag71
ag75
ag79
ag83
ag87
ag91
ag95
ag99
ag103
ag107
ag111
ag115
ag119
ag123
ag127
ag131
ag135
ag139
ag143
ag147
ag151
ag155
ag159
ag163
ag168
ag172
ag176
ag180
ag184
ag188
ag192
ag196
ag200
ag204
ag208
ag212
ag216
ag220
ag224
ag228
ag232
ag236
ag240
ag244
ag248
ag252
ag256
ag260
ag264
ag268
ag272
ag276
aV/usr/share/fonts/truetype/ttf-bitstream-vera/VeraMoBd.ttf
p2505
ag280
ag284
ag288
ag292
ag296
ag300
ag304
ag308
ag312
ag316
ag320
ag324
ag328
ag332
ag336
ag340
ag344
ag348
ag352
ag356
ag360
ag364
ag368
ag372
ag376
ag380
ag384
ag388
ag392
ag396
ag400
ag404
ag408
ag412
ag416
ag420
ag424
aV/usr/share/fonts/truetype/ttf-bitstream-vera/VeraIt.ttf
p2506
ag428
ag432
ag436
ag440
ag444
ag448
ag452
ag456
ag460
ag464
ag468
ag472
ag476
ag480
ag484
ag488
ag492
ag496
ag500
ag504
ag508
ag512
ag516
ag520
ag524
ag528
ag532
ag536
aV/usr/share/fonts/truetype/lyx/cmsy10.ttf
p2507
ag540
ag544
ag548
ag552
ag556
ag560
ag564
ag568
ag572
ag576
ag580
ag584
ag588
ag592
ag596
ag600
ag604
ag608
ag612
ag616
ag620
ag624
ag628
ag632
ag636
ag640
ag644
ag648
ag652
ag656
ag660
ag664
aV/usr/share/fonts/truetype/lyx/cmmi10.ttf
p2508
ag668
ag672
ag676
ag680
ag684
ag688
ag692
ag696
ag700
ag704
ag708
aV/usr/share/fonts/truetype/ttf-bitstream-vera/VeraMoIt.ttf
p2509
ag712
ag716
ag720
ag724
ag728
ag732
ag736
ag740
ag744
ag748
ag752
ag756
ag760
ag764
ag768
ag772
ag776
ag780
ag784
ag788
ag792
ag796
ag800
ag804
aV/usr/share/fonts/truetype/ttf-bitstream-vera/VeraBd.ttf
p2510
ag808
ag812
ag816
ag820
ag824
ag828
ag832
aV/usr/share/fonts/truetype/ttf-bitstream-vera/VeraSeBd.ttf
p2511
ag836
ag840
ag844
ag848
ag852
ag856
ag860
ag864
ag868
ag872
ag876
ag880
ag884
ag888
ag892
ag896
ag900
ag904
ag908
ag912
ag916
ag920
ag924
aV/usr/share/fonts/truetype/ttf-bitstream-vera/VeraBI.ttf
p2512
ag928
ag932
ag936
ag940
ag944
ag948
ag952
ag956
ag960
ag964
ag968
ag972
ag976
ag980
ag984
ag988
ag992
ag996
ag1000
ag1004
ag1008
ag1012
aV/usr/share/fonts/truetype/ttf-bitstream-vera/VeraMono.ttf
p2513
ag1016
ag1020
ag1024
ag1028
ag1032
ag1036
ag1040
ag1044
ag1048
ag1052
ag1056
ag1060
ag1064
ag1068
ag1072
ag1076
ag1080
ag1084
ag1088
ag1092
ag1096
ag1100
ag1104
ag1108
ag1112
ag1116
ag1120
ag1124
ag1128
ag1132
ag1136
ag1140
ag1144
ag1148
ag1152
ag1156
ag1160
ag1164
ag1168
ag1172
ag1176
ag1180
ag1184
ag1188
ag1192
aV/usr/share/fonts/truetype/ttf-bitstream-vera/VeraSe.ttf
p2514
ag1196
ag1200
ag1204
ag1208
ag1212
ag1216
ag1220
ag1224
ag1228
ag1232
ag1236
ag1240
ag1244
ag1248
ag1252
ag1256
ag1260
ag1264
ag1268
ag1272
ag1276
ag1280
ag1284
ag1288
ag1292
ag1296
ag1300
ag1304
ag1308
ag1312
ag1316
ag1320
ag1324
ag1328
ag1332
ag1336
ag1340
ag1344
ag1348
ag1352
ag1356
ag1360
ag1364
ag1368
ag1372
ag1376
ag1380
ag1384
ag1388
ag1392
ag1396
ag1400
ag1404
ag1408
ag1412
ag1416
ag1420
ag1424
ag1428
ag1432
ag1436
ag1440
ag1444
ag1448
ag1452
ag1456
ag1460
ag1464
ag1468
ag1472
ag1476
ag1480
ag1484
ag1488
ag1492
ag1496
ag1500
ag1504
ag1508
ag1512
ag1516
ag1520
ag1524
ag1528
ag1532
ag1536
ag1540
ag1544
ag1548
ag1552
ag1556
ag1560
ag1564
ag1568
ag1572
ag1576
ag1580
ag1584
ag1588
ag1592
ag1596
ag1600
ag1604
ag1608
ag1612
ag1616
ag1620
ag1624
ag1628
ag1632
ag1636
ag1640
ag1644
ag1648
ag1652
ag1656
ag1660
ag1664
ag1668
ag1672
ag1676
ag1680
ag1684
ag1688
ag1692
ag1696
ag1700
ag1704
ag1708
ag1712
ag1716
ag1720
ag1724
ag1728
ag1732
ag1736
ag1740
aV/usr/share/fonts/truetype/ttf-bitstream-vera/VeraMoBI.ttf
p2515
ag1744
ag1748
ag1752
ag1756
ag1760
ag1764
ag1768
ag1772
ag1776
ag1780
ag1784
ag1788
ag1792
ag1796
ag1800
ag1804
ag1808
ag1812
ag1816
ag1820
ag1824
ag1828
aV/usr/share/fonts/truetype/lyx/cmex10.ttf
p2516
ag1832
ag1836
ag1840
ag1844
ag1848
ag1852
ag1856
ag1860
ag1864
ag1868
ag1872
ag1876
ag1880
ag1884
ag1888
ag1892
ag1896
ag1900
ag1904
ag1908
ag1912
ag1916
aV/usr/share/fonts/truetype/lyx/cmr10.ttf
p2517
ag1920
ag1924
ag1928
aV/usr/share/fonts/truetype/ttf-bitstream-vera/Vera.ttf
p2518
ag1932
ag1936
ag1940
ag1944
ag1948
ag1952
ag1956
ag1960
ag1964
ag1968
ag1972
ag1976
ag1980
ag1984
ag1988
ag1992
ag1996
ag2000
ag2004
ag2008
ag2012
ag2016
ag2020
ag2024
ag2028
ag2032
ag2036
ag2040
ag2044
ag2048
ag2052
ag2056
ag2060
ag2064
ag2068
ag2072
ag2076
ag2080
ag2084
ag2088
ag2092
ag2096
ag2100
ag2104
ag2108
ag2112
ag2116
ag2120
ag2124
ag2128
ag2132
ag2136
ag2140
ag2144
ag2148
ag2152
ag2156
ag2160
ag2164
ag2168
ag2172
ag2176
ag2180
ag2184
ag2188
ag2192
ag2196
ag2200
ag2204
ag2208
ag2212
ag2216
ag2220
ag2224
ag2228
ag2232
ag2236
ag2240
ag2244
ag2248
ag2252
ag2256
ag2260
ag2264
ag2268
ag2272
ag2276
ag2280
ag2284
ag2288
ag2292
ag2296
ag2300
ag2304
ag2308
ag2312
ag2316
ag2320
ag2324
ag2328
ag2332
ag2336
ag2340
ag2344
ag2348
ag2352
ag2356
ag2360
ag2364
ag2368
ag2372
ag2376
ag2380
ag2384
ag2388
ag2392
ag2396
ag2400
ag2404
ag2408
ag2412
ag2416
ag2420
ag2424
ag2428
ag2432
ag2436
ag2440
ag2444
ag2448
ag2452
ag2456
ag2460
ag2464
ag2468
ag2472
ag2476
ag2480
ag2484
ag2488
ag2492
ag2496
asS'_FontManager__default_weight'
p2519
Vnormal
p2520
sS'_version'
p2521
I101
sS'default_size'
p2522
NsS'defaultFont'
p2523
(dp2524
g2499
V/usr/local/lib/python2.7/dist-packages/matplotlib/mpl-data/fonts/afm/cmtt10.afm
p2525
sg2501
g42
ssS'afmfiles'
p2526
(lp2527
g2525
aV/usr/local/lib/python2.7/dist-packages/matplotlib/mpl-data/fonts/afm/pncbi8a.afm
p2528
aV/usr/local/lib/python2.7/dist-packages/matplotlib/mpl-data/fonts/pdfcorefonts/Helvetica-BoldOblique.afm
p2529
aV/usr/local/lib/python2.7/dist-packages/matplotlib/mpl-data/fonts/pdfcorefonts/Times-BoldItalic.afm
p2530
aV/usr/local/lib/python2.7/dist-packages/matplotlib/mpl-data/fonts/afm/ptmri8a.afm
p2531
aV/usr/local/lib/python2.7/dist-packages/matplotlib/mpl-data/fonts/afm/pplbi8a.afm
p2532
aV/usr/local/lib/python2.7/dist-packages/matplotlib/mpl-data/fonts/afm/phvb8an.afm
p2533
aV/usr/local/lib/python2.7/dist-packages/matplotlib/mpl-data/fonts/afm/phvlo8a.afm
p2534
aV/usr/local/lib/python2.7/dist-packages/matplotlib/mpl-data/fonts/afm/pzcmi8a.afm
p2535
aV/usr/local/lib/python2.7/dist-packages/matplotlib/mpl-data/fonts/afm/putri8a.afm
p2536
aV/usr/local/lib/python2.7/dist-packages/matplotlib/mpl-data/fonts/afm/phvro8a.afm
p2537
aV/usr/local/lib/python2.7/dist-packages/matplotlib/mpl-data/fonts/pdfcorefonts/Times-Roman.afm
p2538
aV/usr/local/lib/python2.7/dist-packages/matplotlib/mpl-data/fonts/afm/pbkd8a.afm
p2539
aV/usr/local/lib/python2.7/dist-packages/matplotlib/mpl-data/fonts/afm/ptmb8a.afm
p2540
aV/usr/local/lib/python2.7/dist-packages/matplotlib/mpl-data/fonts/afm/phvb8a.afm
p2541
aV/usr/local/lib/python2.7/dist-packages/matplotlib/mpl-data/fonts/afm/pcrro8a.afm
p2542
aV/usr/local/lib/python2.7/dist-packages/matplotlib/mpl-data/fonts/afm/cmsy10.afm
p2543
aV/usr/local/lib/python2.7/dist-packages/matplotlib/mpl-data/fonts/afm/pncr8a.afm
p2544
aV/usr/local/lib/python2.7/dist-packages/matplotlib/mpl-data/fonts/afm/pagd8a.afm
p2545
aV/usr/local/lib/python2.7/dist-packages/matplotlib/mpl-data/fonts/pdfcorefonts/Courier-Oblique.afm
p2546
aV/usr/local/lib/python2.7/dist-packages/matplotlib/mpl-data/fonts/pdfcorefonts/Courier-BoldOblique.afm
p2547
aV/usr/local/lib/python2.7/dist-packages/matplotlib/mpl-data/fonts/afm/phvl8a.afm
p2548
aV/usr/local/lib/python2.7/dist-packages/matplotlib/mpl-data/fonts/afm/pcrr8a.afm
p2549
aV/usr/local/lib/python2.7/dist-packages/matplotlib/mpl-data/fonts/afm/pcrbo8a.afm
p2550
aV/usr/local/lib/python2.7/dist-packages/matplotlib/mpl-data/fonts/pdfcorefonts/Courier.afm
p2551
aV/usr/local/lib/python2.7/dist-packages/matplotlib/mpl-data/fonts/afm/pagko8a.afm
p2552
aV/usr/local/lib/python2.7/dist-packages/matplotlib/mpl-data/fonts/afm/pagk8a.afm
p2553
aV/usr/local/lib/python2.7/dist-packages/matplotlib/mpl-data/fonts/afm/pncb8a.afm
p2554
aV/usr/local/lib/python2.7/dist-packages/matplotlib/mpl-data/fonts/afm/putb8a.afm
p2555
aV/usr/local/lib/python2.7/dist-packages/matplotlib/mpl-data/fonts/afm/pagdo8a.afm
p2556
aV/usr/local/lib/python2.7/dist-packages/matplotlib/mpl-data/fonts/afm/phvr8an.afm
p2557
aV/usr/local/lib/python2.7/dist-packages/matplotlib/mpl-data/fonts/afm/phvro8an.afm
p2558
aV/usr/local/lib/python2.7/dist-packages/matplotlib/mpl-data/fonts/pdfcorefonts/ZapfDingbats.afm
p2559
aV/usr/local/lib/python2.7/dist-packages/matplotlib/mpl-data/fonts/afm/pncri8a.afm
p2560
aV/usr/local/lib/python2.7/dist-packages/matplotlib/mpl-data/fonts/afm/pzdr.afm
p2561
aV/usr/local/lib/python2.7/dist-packages/matplotlib/mpl-data/fonts/afm/phvbo8a.afm
p2562
aV/usr/local/lib/python2.7/dist-packages/matplotlib/mpl-data/fonts/pdfcorefonts/Courier-Bold.afm
p2563
aV/usr/local/lib/python2.7/dist-packages/matplotlib/mpl-data/fonts/afm/pcrb8a.afm
p2564
aV/usr/local/lib/python2.7/dist-packages/matplotlib/mpl-data/fonts/afm/pbkli8a.afm
p2565
aV/usr/local/lib/python2.7/dist-packages/matplotlib/mpl-data/fonts/pdfcorefonts/Helvetica-Oblique.afm
p2566
aV/usr/local/lib/python2.7/dist-packages/matplotlib/mpl-data/fonts/afm/cmr10.afm
p2567
aV/usr/local/lib/python2.7/dist-packages/matplotlib/mpl-data/fonts/afm/cmex10.afm
p2568
aV/usr/local/lib/python2.7/dist-packages/matplotlib/mpl-data/fonts/pdfcorefonts/Helvetica.afm
p2569
aV/usr/local/lib/python2.7/dist-packages/matplotlib/mpl-data/fonts/afm/cmmi10.afm
p2570
aV/usr/local/lib/python2.7/dist-packages/matplotlib/mpl-data/fonts/afm/pplri8a.afm
p2571
aV/usr/local/lib/python2.7/dist-packages/matplotlib/mpl-data/fonts/afm/ptmbi8a.afm
p2572
aV/usr/local/lib/python2.7/dist-packages/matplotlib/mpl-data/fonts/afm/pplb8a.afm
p2573
aV/usr/local/lib/python2.7/dist-packages/matplotlib/mpl-data/fonts/afm/putbi8a.afm
p2574
aV/usr/local/lib/python2.7/dist-packages/matplotlib/mpl-data/fonts/afm/psyr.afm
p2575
aV/usr/local/lib/python2.7/dist-packages/matplotlib/mpl-data/fonts/pdfcorefonts/Times-Bold.afm
p2576
aV/usr/local/lib/python2.7/dist-packages/matplotlib/mpl-data/fonts/afm/phvbo8an.afm
p2577
aV/usr/local/lib/python2.7/dist-packages/matplotlib/mpl-data/fonts/afm/pplr8a.afm
p2578
aV/usr/local/lib/python2.7/dist-packages/matplotlib/mpl-data/fonts/afm/ptmr8a.afm
p2579
aV/usr/local/lib/python2.7/dist-packages/matplotlib/mpl-data/fonts/afm/pbkdi8a.afm
p2580
aV/usr/local/lib/python2.7/dist-packages/matplotlib/mpl-data/fonts/afm/phvr8a.afm
p2581
aV/usr/local/lib/python2.7/dist-packages/matplotlib/mpl-data/fonts/afm/pbkl8a.afm
p2582
aV/usr/local/lib/python2.7/dist-packages/matplotlib/mpl-data/fonts/pdfcorefonts/Symbol.afm
p2583
aV/usr/local/lib/python2.7/dist-packages/matplotlib/mpl-data/fonts/afm/putr8a.afm
p2584
aV/usr/local/lib/python2.7/dist-packages/matplotlib/mpl-data/fonts/pdfcorefonts/Helvetica-Bold.afm
p2585
aV/usr/local/lib/python2.7/dist-packages/matplotlib/mpl-data/fonts/pdfcorefonts/Times-Italic.afm
p2586
aV/usr/share/fonts/X11/Type1/lmtt10.afm
p2587
aV/usr/share/fonts/type1/gsfonts/p052004l.afm
p2588
aV/usr/share/fonts/X11/Type1/lmssqo8.afm
p2589
aV/usr/share/fonts/type1/gsfonts/b018015l.afm
p2590
aV/usr/share/fonts/X11/Type1/lmbxo10.afm
p2591
aV/usr/share/fonts/type1/texlive-fonts-recommended/pcrro8a.afm
p2592
aV/usr/share/fonts/type1/gsfonts/n022024l.afm
p2593
aV/usr/share/fonts/X11/Type1/lmtlc10.afm
p2594
aV/usr/share/fonts/X11/Type1/lmtk10.afm
p2595
aV/usr/share/fonts/X11/Type1/qbkr.afm
p2596
aV/usr/share/fonts/X11/Type1/lmdunh10.afm
p2597
aV/usr/share/fonts/type1/gsfonts/n019003l.afm
p2598
aV/usr/share/fonts/X11/Type1/qcsri.afm
p2599
aV/usr/share/fonts/X11/Type1/qcrr.afm
p2600
aV/usr/share/fonts/type1/gsfonts/c059036l.afm
p2601
aV/usr/share/fonts/X11/Type1/qtmb.afm
p2602
aV/usr/share/fonts/X11/Type1/qhvcb.afm
p2603
aV/usr/share/fonts/X11/Type1/lmssbx10.afm
p2604
aV/usr/share/fonts/X11/Type1/lmvtlo10.afm
p2605
aV/usr/share/fonts/X11/Type1/lmtcso10.afm
p2606
aV/usr/share/fonts/X11/Type1/lmtti10.afm
p2607
aV/usr/share/fonts/X11/Type1/c0419bt_.afm
p2608
aV/usr/share/fonts/type1/gsfonts/n021024l.afm
p2609
aV/usr/share/fonts/type1/gsfonts/n019024l.afm
p2610
aV/usr/share/fonts/X11/Type1/qhvbi.afm
p2611
aV/usr/share/fonts/X11/Type1/qcsb.afm
p2612
aV/usr/share/fonts/X11/Type1/lmbx10.afm
p2613
aV/usr/share/fonts/type1/gsfonts/d050000l.afm
p2614
aV/usr/share/fonts/X11/Type1/lmssdo10.afm
p2615
aV/usr/share/fonts/X11/Type1/lmssqbx8.afm
p2616
aV/usr/share/fonts/X11/Type1/qhvb.afm
p2617
aV/usr/share/fonts/X11/Type1/lmb10.afm
p2618
aV/usr/share/fonts/X11/Type1/c0648bt_.afm
p2619
aV/usr/share/fonts/type1/gsfonts/z003034l.afm
p2620
aV/usr/share/fonts/X11/Type1/qhvr.afm
p2621
aV/usr/share/fonts/X11/Type1/lmbxi10.afm
p2622
aV/usr/share/fonts/type1/texlive-fonts-recommended/putb8a.afm
p2623
aV/usr/share/fonts/type1/texlive-fonts-recommended/putr8a.afm
p2624
aV/usr/share/fonts/type1/gsfonts/b018012l.afm
p2625
aV/usr/share/fonts/X11/Type1/lmro10.afm
p2626
aV/usr/share/fonts/X11/Type1/qplr.afm
p2627
aV/usr/share/fonts/X11/Type1/qcsr.afm
p2628
aV/usr/share/fonts/type1/gsfonts/a010013l.afm
p2629
aV/usr/share/fonts/X11/Type1/c0583bt_.afm
p2630
aV/usr/share/fonts/X11/Type1/qagri.afm
p2631
aV/usr/share/fonts/X11/Type1/qbkbi.afm
p2632
aV/usr/share/fonts/type1/texlive-fonts-recommended/bchbi8a.afm
p2633
aV/usr/share/fonts/X11/Type1/lmcsc10.afm
p2634
aV/usr/share/fonts/type1/gsfonts/n019063l.afm
p2635
aV/usr/share/fonts/X11/Type1/qbkb.afm
p2636
aV/usr/share/fonts/X11/Type1/qcrb.afm
p2637
aV/usr/share/fonts/X11/Type1/lmssqbo8.afm
p2638
aV/usr/share/fonts/type1/gsfonts/p052003l.afm
p2639
aV/usr/share/fonts/type1/gsfonts/b018032l.afm
p2640
aV/usr/share/fonts/X11/Type1/lmvtk10.afm
p2641
aV/usr/share/fonts/type1/gsfonts/n021023l.afm
p2642
aV/usr/share/fonts/X11/Type1/qhvri.afm
p2643
aV/usr/share/fonts/X11/Type1/lmtlo10.afm
p2644
aV/usr/share/fonts/X11/Type1/lmvtl10.afm
p2645
aV/usr/share/fonts/type1/gsfonts/n021003l.afm
p2646
aV/usr/share/fonts/X11/Type1/lmsso10.afm
p2647
aV/usr/share/fonts/type1/gsfonts/s050000l.afm
p2648
aV/usr/share/fonts/type1/gsfonts/n021004l.afm
p2649
aV/usr/share/fonts/type1/gsfonts/p052024l.afm
p2650
aV/usr/share/fonts/X11/Type1/qtmri.afm
p2651
aV/usr/share/fonts/X11/Type1/qcrbi.afm
p2652
aV/usr/share/fonts/type1/texlive-fonts-recommended/putbi8a.afm
p2653
aV/usr/share/fonts/type1/gsfonts/c059013l.afm
p2654
aV/usr/share/fonts/X11/Type1/qtmr.afm
p2655
aV/usr/share/fonts/X11/Type1/lmtcsc10.afm
p2656
aV/usr/share/fonts/X11/Type1/lmcsco10.afm
p2657
aV/usr/share/fonts/X11/Type1/qagb.afm
p2658
aV/usr/share/fonts/X11/Type1/c0633bt_.afm
p2659
aV/usr/share/fonts/X11/Type1/lmvtto10.afm
p2660
aV/usr/share/fonts/type1/texlive-fonts-recommended/pcrbo8a.afm
p2661
aV/usr/share/fonts/X11/Type1/c0649bt_.afm
p2662
aV/usr/share/fonts/X11/Type1/lmss10.afm
p2663
aV/usr/share/fonts/X11/Type1/lmvtt10.afm
p2664
aV/usr/share/fonts/type1/gsfonts/b018035l.afm
p2665
aV/usr/share/fonts/X11/Type1/lmduno10.afm
p2666
aV/usr/share/fonts/X11/Type1/qtmbi.afm
p2667
aV/usr/share/fonts/X11/Type1/qcsbi.afm
p2668
aV/usr/share/fonts/type1/texlive-fonts-recommended/pcrb8a.afm
p2669
aV/usr/share/fonts/type1/gsfonts/n022004l.afm
p2670
aV/usr/share/fonts/X11/Type1/qhvcbi.afm
p2671
aV/usr/share/fonts/type1/texlive-fonts-recommended/putri8a.afm
p2672
aV/usr/share/fonts/X11/Type1/lmri10.afm
p2673
aV/usr/share/fonts/type1/gsfonts/n019004l.afm
p2674
aV/usr/share/fonts/X11/Type1/lmr10.afm
p2675
aV/usr/share/fonts/type1/gsfonts/a010015l.afm
p2676
aV/usr/share/fonts/X11/Type1/lmtl10.afm
p2677
aV/usr/share/fonts/X11/Type1/qplri.afm
p2678
aV/usr/share/fonts/X11/Type1/qagbi.afm
p2679
aV/usr/share/fonts/X11/Type1/qhvcr.afm
p2680
aV/usr/share/fonts/X11/Type1/lmtlco10.afm
p2681
aV/usr/share/fonts/type1/gsfonts/c059016l.afm
p2682
aV/usr/share/fonts/X11/Type1/qplb.afm
p2683
aV/usr/share/fonts/type1/gsfonts/n019044l.afm
p2684
aV/usr/share/fonts/type1/gsfonts/n022003l.afm
p2685
aV/usr/share/fonts/type1/gsfonts/a010033l.afm
p2686
aV/usr/share/fonts/X11/Type1/lmvtko10.afm
p2687
aV/usr/share/fonts/type1/texlive-fonts-recommended/bchri8a.afm
p2688
aV/usr/share/fonts/type1/texlive-fonts-recommended/bchb8a.afm
p2689
aV/usr/share/fonts/type1/gsfonts/c059033l.afm
p2690
aV/usr/share/fonts/X11/Type1/qcrri.afm
p2691
aV/usr/share/fonts/type1/gsfonts/n019064l.afm
p2692
aV/usr/share/fonts/X11/Type1/c0582bt_.afm
p2693
aV/usr/share/fonts/X11/Type1/lmssq8.afm
p2694
aV/usr/share/fonts/X11/Type1/lmssbo10.afm
p2695
aV/usr/share/fonts/type1/texlive-fonts-recommended/pcrr8a.afm
p2696
aV/usr/share/fonts/X11/Type1/qagr.afm
p2697
aV/usr/share/fonts/type1/gsfonts/n019043l.afm
p2698
aV/usr/share/fonts/type1/texlive-fonts-recommended/bchr8a.afm
p2699
aV/usr/share/fonts/type1/gsfonts/n019023l.afm
p2700
aV/usr/share/fonts/X11/Type1/lmtko10.afm
p2701
aV/usr/share/fonts/X11/Type1/qzcmi.afm
p2702
aV/usr/share/fonts/X11/Type1/c0611bt_.afm
p2703
aV/usr/share/fonts/X11/Type1/lmbo10.afm
p2704
aV/usr/share/fonts/type1/gsfonts/p052023l.afm
p2705
aV/usr/share/fonts/X11/Type1/qplbi.afm
p2706
aV/usr/share/fonts/X11/Type1/lmssdc10.afm
p2707
aV/usr/share/fonts/X11/Type1/lmtto10.afm
p2708
aV/usr/share/fonts/type1/gsfonts/n022023l.afm
p2709
aV/usr/share/fonts/X11/Type1/qhvcri.afm
p2710
aV/usr/share/fonts/type1/gsfonts/a010035l.afm
p2711
aV/usr/share/fonts/X11/Type1/qbkri.afm
p2712
aV/usr/share/fonts/X11/Type1/c0632bt_.afm
p2713
aV/usr/share/fonts/X11/Type1/lmu10.afm
p2714
asS'afmlist'
p2715
(lp2716
g1
(g8
g3
NtRp2717
(dp2718
g11
Vnormal
p2719
sg13
S'Computer Modern'
p2720
sg15
I500
sg16
g2719
sg17
g2719
sg18
g2525
sg20
Vscalable
p2721
sbag1
(g8
g3
NtRp2722
(dp2723
g11
Vitalic
p2724
sg13
S'New Century Schoolbook'
p2725
sg15
I700
sg16
g2719
sg17
g2719
sg18
g2528
sg20
g2721
sbag1
(g8
g3
NtRp2726
(dp2727
g11
g2724
sg13
S'Helvetica'
p2728
sg15
I700
sg16
g2719
sg17
g2719
sg18
g2529
sg20
g2721
sbag1
(g8
g3
NtRp2729
(dp2730
g11
g2724
sg13
S'Times'
p2731
sg15
I700
sg16
g2719
sg17
g2719
sg18
g2530
sg20
g2721
sbag1
(g8
g3
NtRp2732
(dp2733
g11
g2724
sg13
S'Times'
p2734
sg15
I500
sg16
g2719
sg17
g2719
sg18
g2531
sg20
g2721
sbag1
(g8
g3
NtRp2735
(dp2736
g11
g2724
sg13
S'Palatino'
p2737
sg15
I700
sg16
g2719
sg17
g2719
sg18
g2532
sg20
g2721
sbag1
(g8
g3
NtRp2738
(dp2739
g11
g2719
sg13
S'Helvetica'
p2740
sg15
I700
sg16
Vcondensed
p2741
sg17
g2719
sg18
g2533
sg20
g2721
sbag1
(g8
g3
NtRp2742
(dp2743
g11
g2724
sg13
S'Helvetica'
p2744
sg15
I200
sg16
g2719
sg17
g2719
sg18
g2534
sg20
g2721
sbag1
(g8
g3
NtRp2745
(dp2746
g11
g2724
sg13
S'ITC Zapf Chancery'
p2747
sg15
I500
sg16
g2719
sg17
g2719
sg18
g2535
sg20
g2721
sbag1
(g8
g3
NtRp2748
(dp2749
g11
g2724
sg13
S'Utopia'
p2750
sg15
I400
sg16
g2719
sg17
g2719
sg18
g2536
sg20
g2721
sbag1
(g8
g3
NtRp2751
(dp2752
g11
g2724
sg13
S'Helvetica'
p2753
sg15
I500
sg16
g2719
sg17
g2719
sg18
g2537
sg20
g2721
sbag1
(g8
g3
NtRp2754
(dp2755
g11
g2719
sg13
S'Times'
p2756
sg15
I500
sg16
g2719
sg17
g2719
sg18
g2538
sg20
g2721
sbag1
(g8
g3
NtRp2757
(dp2758
g11
g2719
sg13
S'ITC Bookman'
p2759
sg15
I600
sg16
g2719
sg17
g2719
sg18
g2539
sg20
g2721
sbag1
(g8
g3
NtRp2760
(dp2761
g11
g2719
sg13
S'Times'
p2762
sg15
I700
sg16
g2719
sg17
g2719
sg18
g2540
sg20
g2721
sbag1
(g8
g3
NtRp2763
(dp2764
g11
g2719
sg13
S'Helvetica'
p2765
sg15
I700
sg16
g2719
sg17
g2719
sg18
g2541
sg20
g2721
sbag1
(g8
g3
NtRp2766
(dp2767
g11
g2724
sg13
S'Courier'
p2768
sg15
I500
sg16
g2719
sg17
g2719
sg18
g2542
sg20
g2721
sbag1
(g8
g3
NtRp2769
(dp2770
g11
g2724
sg13
S'Computer Modern'
p2771
sg15
I500
sg16
g2719
sg17
g2719
sg18
g2543
sg20
g2721
sbag1
(g8
g3
NtRp2772
(dp2773
g11
g2719
sg13
S'New Century Schoolbook'
p2774
sg15
I500
sg16
g2719
sg17
g2719
sg18
g2544
sg20
g2721
sbag1
(g8
g3
NtRp2775
(dp2776
g11
g2719
sg13
S'ITC Avant Garde Gothic'
p2777
sg15
I600
sg16
g2719
sg17
g2719
sg18
g2545
sg20
g2721
sbag1
(g8
g3
NtRp2778
(dp2779
g11
g2724
sg13
S'Courier'
p2780
sg15
I500
sg16
g2719
sg17
g2719
sg18
g2546
sg20
g2721
sbag1
(g8
g3
NtRp2781
(dp2782
g11
g2724
sg13
S'Courier'
p2783
sg15
I700
sg16
g2719
sg17
g2719
sg18
g2547
sg20
g2721
sbag1
(g8
g3
NtRp2784
(dp2785
g11
g2719
sg13
S'Helvetica'
p2786
sg15
I200
sg16
g2719
sg17
g2719
sg18
g2548
sg20
g2721
sbag1
(g8
g3
NtRp2787
(dp2788
g11
g2719
sg13
S'Courier'
p2789
sg15
I500
sg16
g2719
sg17
g2719
sg18
g2549
sg20
g2721
sbag1
(g8
g3
NtRp2790
(dp2791
g11
g2724
sg13
S'Courier'
p2792
sg15
I700
sg16
g2719
sg17
g2719
sg18
g2550
sg20
g2721
sbag1
(g8
g3
NtRp2793
(dp2794
g11
g2719
sg13
S'Courier'
p2795
sg15
I500
sg16
g2719
sg17
g2719
sg18
g2551
sg20
g2721
sbag1
(g8
g3
NtRp2796
(dp2797
g11
g2724
sg13
S'ITC Avant Garde Gothic'
p2798
sg15
I400
sg16
g2719
sg17
g2719
sg18
g2552
sg20
g2721
sbag1
(g8
g3
NtRp2799
(dp2800
g11
g2719
sg13
S'ITC Avant Garde Gothic'
p2801
sg15
I400
sg16
g2719
sg17
g2719
sg18
g2553
sg20
g2721
sbag1
(g8
g3
NtRp2802
(dp2803
g11
g2719
sg13
S'New Century Schoolbook'
p2804
sg15
I700
sg16
g2719
sg17
g2719
sg18
g2554
sg20
g2721
sbag1
(g8
g3
NtRp2805
(dp2806
g11
g2719
sg13
S'Utopia'
p2807
sg15
I700
sg16
g2719
sg17
g2719
sg18
g2555
sg20
g2721
sbag1
(g8
g3
NtRp2808
(dp2809
g11
g2724
sg13
S'ITC Avant Garde Gothic'
p2810
sg15
I600
sg16
g2719
sg17
g2719
sg18
g2556
sg20
g2721
sbag1
(g8
g3
NtRp2811
(dp2812
g11
g2719
sg13
S'Helvetica'
p2813
sg15
I500
sg16
g2741
sg17
g2719
sg18
g2557
sg20
g2721
sbag1
(g8
g3
NtRp2814
(dp2815
g11
g2724
sg13
S'Helvetica'
p2816
sg15
I500
sg16
g2741
sg17
g2719
sg18
g2558
sg20
g2721
sbag1
(g8
g3
NtRp2817
(dp2818
g11
g2719
sg13
S'ZapfDingbats'
p2819
sg15
I500
sg16
g2719
sg17
g2719
sg18
g2559
sg20
g2721
sbag1
(g8
g3
NtRp2820
(dp2821
g11
g2724
sg13
S'New Century Schoolbook'
p2822
sg15
I500
sg16
g2719
sg17
g2719
sg18
g2560
sg20
g2721
sbag1
(g8
g3
NtRp2823
(dp2824
g11
g2719
sg13
S'ITC Zapf Dingbats'
p2825
sg15
I500
sg16
g2719
sg17
g2719
sg18
g2561
sg20
g2721
sbag1
(g8
g3
NtRp2826
(dp2827
g11
g2724
sg13
S'Helvetica'
p2828
sg15
I700
sg16
g2719
sg17
g2719
sg18
g2562
sg20
g2721
sbag1
(g8
g3
NtRp2829
(dp2830
g11
g2719
sg13
S'Courier'
p2831
sg15
I700
sg16
g2719
sg17
g2719
sg18
g2563
sg20
g2721
sbag1
(g8
g3
NtRp2832
(dp2833
g11
g2719
sg13
S'Courier'
p2834
sg15
I700
sg16
g2719
sg17
g2719
sg18
g2564
sg20
g2721
sbag1
(g8
g3
NtRp2835
(dp2836
g11
g2724
sg13
S'ITC Bookman'
p2837
sg15
I200
sg16
g2719
sg17
g2719
sg18
g2565
sg20
g2721
sbag1
(g8
g3
NtRp2838
(dp2839
g11
g2724
sg13
S'Helvetica'
p2840
sg15
I500
sg16
g2719
sg17
g2719
sg18
g2566
sg20
g2721
sbag1
(g8
g3
NtRp2841
(dp2842
g11
g2719
sg13
S'Computer Modern'
p2843
sg15
I500
sg16
g2719
sg17
g2719
sg18
g2567
sg20
g2721
sbag1
(g8
g3
NtRp2844
(dp2845
g11
g2719
sg13
S'Computer Modern'
p2846
sg15
I500
sg16
g2719
sg17
g2719
sg18
g2568
sg20
g2721
sbag1
(g8
g3
NtRp2847
(dp2848
g11
g2719
sg13
S'Helvetica'
p2849
sg15
I500
sg16
g2719
sg17
g2719
sg18
g2569
sg20
g2721
sbag1
(g8
g3
NtRp2850
(dp2851
g11
g2724
sg13
S'Computer Modern'
p2852
sg15
I500
sg16
g2719
sg17
g2719
sg18
g2570
sg20
g2721
sbag1
(g8
g3
NtRp2853
(dp2854
g11
g2724
sg13
S'Palatino'
p2855
sg15
I500
sg16
g2719
sg17
g2719
sg18
g2571
sg20
g2721
sbag1
(g8
g3
NtRp2856
(dp2857
g11
g2724
sg13
S'Times'
p2858
sg15
I700
sg16
g2719
sg17
g2719
sg18
g2572
sg20
g2721
sbag1
(g8
g3
NtRp2859
(dp2860
g11
g2719
sg13
S'Palatino'
p2861
sg15
I700
sg16
g2719
sg17
g2719
sg18
g2573
sg20
g2721
sbag1
(g8
g3
NtRp2862
(dp2863
g11
g2724
sg13
S'Utopia'
p2864
sg15
I700
sg16
g2719
sg17
g2719
sg18
g2574
sg20
g2721
sbag1
(g8
g3
NtRp2865
(dp2866
g11
g2719
sg13
S'Symbol'
p2867
sg15
I500
sg16
g2719
sg17
g2719
sg18
g2575
sg20
g2721
sbag1
(g8
g3
NtRp2868
(dp2869
g11
g2719
sg13
S'Times'
p2870
sg15
I700
sg16
g2719
sg17
g2719
sg18
g2576
sg20
g2721
sbag1
(g8
g3
NtRp2871
(dp2872
g11
g2724
sg13
S'Helvetica'
p2873
sg15
I700
sg16
g2741
sg17
g2719
sg18
g2577
sg20
g2721
sbag1
(g8
g3
NtRp2874
(dp2875
g11
g2719
sg13
S'Palatino'
p2876
sg15
I500
sg16
g2719
sg17
g2719
sg18
g2578
sg20
g2721
sbag1
(g8
g3
NtRp2877
(dp2878
g11
g2719
sg13
S'Times'
p2879
sg15
I500
sg16
g2719
sg17
g2719
sg18
g2579
sg20
g2721
sbag1
(g8
g3
NtRp2880
(dp2881
g11
g2724
sg13
S'ITC Bookman'
p2882
sg15
I600
sg16
g2719
sg17
g2719
sg18
g2580
sg20
g2721
sbag1
(g8
g3
NtRp2883
(dp2884
g11
g2719
sg13
S'Helvetica'
p2885
sg15
I500
sg16
g2719
sg17
g2719
sg18
g2581
sg20
g2721
sbag1
(g8
g3
NtRp2886
(dp2887
g11
g2719
sg13
S'ITC Bookman'
p2888
sg15
I200
sg16
g2719
sg17
g2719
sg18
g2582
sg20
g2721
sbag1
(g8
g3
NtRp2889
(dp2890
g11
g2719
sg13
S'Symbol'
p2891
sg15
I500
sg16
g2719
sg17
g2719
sg18
g2583
sg20
g2721
sbag1
(g8
g3
NtRp2892
(dp2893
g11
g2719
sg13
S'Utopia'
p2894
sg15
I400
sg16
g2719
sg17
g2719
sg18
g2584
sg20
g2721
sbag1
(g8
g3
NtRp2895
(dp2896
g11
g2719
sg13
S'Helvetica'
p2897
sg15
I700
sg16
g2719
sg17
g2719
sg18
g2585
sg20
g2721
sbag1
(g8
g3
NtRp2898
(dp2899
g11
g2724
sg13
S'Times'
p2900
sg15
I500
sg16
g2719
sg17
g2719
sg18
g2586
sg20
g2721
sbag1
(g8
g3
NtRp2901
(dp2902
g11
g2719
sg13
S'LMMono10'
p2903
sg15
I400
sg16
g2719
sg17
g2719
sg18
g2587
sg20
g2721
sbag1
(g8
g3
NtRp2904
(dp2905
g11
g2719
sg13
S'URW Palladio L'
p2906
sg15
I700
sg16
g2719
sg17
g2719
sg18
g2588
sg20
g2721
sbag1
(g8
g3
NtRp2907
(dp2908
g11
g2724
sg13
S'LMSansQuot8'
p2909
sg15
I400
sg16
g2719
sg17
g2719
sg18
g2589
sg20
g2721
sbag1
(g8
g3
NtRp2910
(dp2911
g11
g2719
sg13
S'URW Bookman L'
p2912
sg15
I700
sg16
g2719
sg17
g2719
sg18
g2590
sg20
g2721
sbag1
(g8
g3
NtRp2913
(dp2914
g11
g2724
sg13
S'LMRomanSlant10'
p2915
sg15
I700
sg16
g2719
sg17
g2719
sg18
g2591
sg20
g2721
sbag1
(g8
g3
NtRp2916
(dp2917
g11
g2724
sg13
S'Nimbus Mono L'
p2918
sg15
I700
sg16
g2719
sg17
g2719
sg18
g2593
sg20
g2721
sbag1
(g8
g3
NtRp2919
(dp2920
g11
g2719
sg13
S'LMMonoLtCond10'
p2921
sg15
I200
sg16
g2741
sg17
g2719
sg18
g2594
sg20
g2721
sbag1
(g8
g3
NtRp2922
(dp2923
g11
g2719
sg13
S'LMMonoLt10'
p2924
sg15
I700
sg16
g2719
sg17
g2719
sg18
g2595
sg20
g2721
sbag1
(g8
g3
NtRp2925
(dp2926
g11
g2719
sg13
S'TeXGyreBonum'
p2927
sg15
I400
sg16
g2719
sg17
g2719
sg18
g2596
sg20
g2721
sbag1
(g8
g3
NtRp2928
(dp2929
g11
g2719
sg13
S'LMRomanDunh10'
p2930
sg15
I400
sg16
g2719
sg17
g2719
sg18
g2597
sg20
g2721
sbag1
(g8
g3
NtRp2931
(dp2932
g11
g2719
sg13
S'Nimbus Sans L'
p2933
sg15
I400
sg16
g2719
sg17
g2719
sg18
g2598
sg20
g2721
sbag1
(g8
g3
NtRp2934
(dp2935
g11
g2724
sg13
S'TeXGyreSchola'
p2936
sg15
I400
sg16
g2719
sg17
g2719
sg18
g2599
sg20
g2721
sbag1
(g8
g3
NtRp2937
(dp2938
g11
g2719
sg13
S'TeXGyreCursor'
p2939
sg15
I400
sg16
g2719
sg17
g2719
sg18
g2600
sg20
g2721
sbag1
(g8
g3
NtRp2940
(dp2941
g11
g2724
sg13
S'Century Schoolbook L'
p2942
sg15
I700
sg16
g2719
sg17
g2719
sg18
g2601
sg20
g2721
sbag1
(g8
g3
NtRp2943
(dp2944
g11
g2719
sg13
S'TeXGyreTermes'
p2945
sg15
I700
sg16
g2719
sg17
g2719
sg18
g2602
sg20
g2721
sbag1
(g8
g3
NtRp2946
(dp2947
g11
g2719
sg13
S'TeXGyreHerosCondensed'
p2948
sg15
I700
sg16
g2741
sg17
g2719
sg18
g2603
sg20
g2721
sbag1
(g8
g3
NtRp2949
(dp2950
g11
g2719
sg13
S'LMSans10'
p2951
sg15
I700
sg16
g2719
sg17
g2719
sg18
g2604
sg20
g2721
sbag1
(g8
g3
NtRp2952
(dp2953
g11
g2724
sg13
S'LMMonoPropLt10'
p2954
sg15
I200
sg16
g2719
sg17
g2719
sg18
g2605
sg20
g2721
sbag1
(g8
g3
NtRp2955
(dp2956
g11
g2724
sg13
S'LMMonoCaps10'
p2957
sg15
I400
sg16
g2719
sg17
g2719
sg18
g2606
sg20
g2721
sbag1
(g8
g3
NtRp2958
(dp2959
g11
g2724
sg13
S'LMMono10'
p2960
sg15
I400
sg16
g2719
sg17
g2719
sg18
g2607
sg20
g2721
sbag1
(g8
g3
NtRp2961
(dp2962
g11
g2719
sg13
S'Courier 10 Pitch'
p2963
sg15
I400
sg16
g2719
sg17
g2719
sg18
g2608
sg20
g2721
sbag1
(g8
g3
NtRp2964
(dp2965
g11
g2724
sg13
S'Nimbus Roman No9 L'
p2966
sg15
I700
sg16
g2719
sg17
g2719
sg18
g2609
sg20
g2721
sbag1
(g8
g3
NtRp2967
(dp2968
g11
g2724
sg13
S'Nimbus Sans L'
p2969
sg15
I700
sg16
g2719
sg17
g2719
sg18
g2610
sg20
g2721
sbag1
(g8
g3
NtRp2970
(dp2971
g11
g2724
sg13
S'TeXGyreHeros'
p2972
sg15
I700
sg16
g2719
sg17
g2719
sg18
g2611
sg20
g2721
sbag1
(g8
g3
NtRp2973
(dp2974
g11
g2719
sg13
S'TeXGyreSchola'
p2975
sg15
I700
sg16
g2719
sg17
g2719
sg18
g2612
sg20
g2721
sbag1
(g8
g3
NtRp2976
(dp2977
g11
g2719
sg13
S'LMRoman10'
p2978
sg15
I700
sg16
g2719
sg17
g2719
sg18
g2613
sg20
g2721
sbag1
(g8
g3
NtRp2979
(dp2980
g11
g2719
sg13
S'Dingbats'
p2981
sg15
I400
sg16
g2719
sg17
g2719
sg18
g2614
sg20
g2721
sbag1
(g8
g3
NtRp2982
(dp2983
g11
g2724
sg13
S'LMSansDemiCond10'
p2984
sg15
I600
sg16
g2741
sg17
g2719
sg18
g2615
sg20
g2721
sbag1
(g8
g3
NtRp2985
(dp2986
g11
g2719
sg13
S'LMSansQuot8'
p2987
sg15
I700
sg16
g2719
sg17
g2719
sg18
g2616
sg20
g2721
sbag1
(g8
g3
NtRp2988
(dp2989
g11
g2719
sg13
S'TeXGyreHeros'
p2990
sg15
I700
sg16
g2719
sg17
g2719
sg18
g2617
sg20
g2721
sbag1
(g8
g3
NtRp2991
(dp2992
g11
g2719
sg13
S'LMRomanDemi10'
p2993
sg15
I600
sg16
g2719
sg17
g2719
sg18
g2618
sg20
g2721
sbag1
(g8
g3
NtRp2994
(dp2995
g11
g2719
sg13
S'Bitstream Charter'
p2996
sg15
I400
sg16
g2719
sg17
g2719
sg18
g2619
sg20
g2721
sbag1
(g8
g3
NtRp2997
(dp2998
g11
g2724
sg13
S'URW Chancery L'
p2999
sg15
I500
sg16
g2719
sg17
g2719
sg18
g2620
sg20
g2721
sbag1
(g8
g3
NtRp3000
(dp3001
g11
g2719
sg13
S'TeXGyreHeros'
p3002
sg15
I400
sg16
g2719
sg17
g2719
sg18
g2621
sg20
g2721
sbag1
(g8
g3
NtRp3003
(dp3004
g11
g2724
sg13
S'LMRoman10'
p3005
sg15
I700
sg16
g2719
sg17
g2719
sg18
g2622
sg20
g2721
sbag1
(g8
g3
NtRp3006
(dp3007
g11
g2719
sg13
S'URW Bookman L'
p3008
sg15
I400
sg16
g2719
sg17
g2719
sg18
g2625
sg20
g2721
sbag1
(g8
g3
NtRp3009
(dp3010
g11
g2724
sg13
S'LMRomanSlant10'
p3011
sg15
I400
sg16
g2719
sg17
g2719
sg18
g2626
sg20
g2721
sbag1
(g8
g3
NtRp3012
(dp3013
g11
g2719
sg13
S'TeXGyrePagella'
p3014
sg15
I400
sg16
g2719
sg17
g2719
sg18
g2627
sg20
g2721
sbag1
(g8
g3
NtRp3015
(dp3016
g11
g2719
sg13
S'TeXGyreSchola'
p3017
sg15
I400
sg16
g2719
sg17
g2719
sg18
g2628
sg20
g2721
sbag1
(g8
g3
NtRp3018
(dp3019
g11
g2719
sg13
S'URW Gothic L'
p3020
sg15
I400
sg16
g2719
sg17
g2719
sg18
g2629
sg20
g2721
sbag1
(g8
g3
NtRp3021
(dp3022
g11
g2719
sg13
S'Courier 10 Pitch'
p3023
sg15
I700
sg16
g2719
sg17
g2719
sg18
g2630
sg20
g2721
sbag1
(g8
g3
NtRp3024
(dp3025
g11
g2724
sg13
S'TeXGyreAdventor'
p3026
sg15
I400
sg16
g2719
sg17
g2719
sg18
g2631
sg20
g2721
sbag1
(g8
g3
NtRp3027
(dp3028
g11
g2724
sg13
S'TeXGyreBonum'
p3029
sg15
I700
sg16
g2719
sg17
g2719
sg18
g2632
sg20
g2721
sbag1
(g8
g3
NtRp3030
(dp3031
g11
g2724
sg13
S'Bitstream Charter'
p3032
sg15
I700
sg16
g2719
sg17
g2719
sg18
g2633
sg20
g2721
sbag1
(g8
g3
NtRp3033
(dp3034
g11
g2719
sg13
S'LMRomanCaps10'
p3035
sg15
I400
sg16
g2719
sg17
g2719
sg18
g2634
sg20
g2721
sbag1
(g8
g3
NtRp3036
(dp3037
g11
g2724
sg13
S'Nimbus Sans L'
p3038
sg15
I400
sg16
g2741
sg17
g2719
sg18
g2635
sg20
g2721
sbag1
(g8
g3
NtRp3039
(dp3040
g11
g2719
sg13
S'TeXGyreBonum'
p3041
sg15
I700
sg16
g2719
sg17
g2719
sg18
g2636
sg20
g2721
sbag1
(g8
g3
NtRp3042
(dp3043
g11
g2719
sg13
S'TeXGyreCursor'
p3044
sg15
I700
sg16
g2719
sg17
g2719
sg18
g2637
sg20
g2721
sbag1
(g8
g3
NtRp3045
(dp3046
g11
g2724
sg13
S'LMSansQuot8'
p3047
sg15
I700
sg16
g2719
sg17
g2719
sg18
g2638
sg20
g2721
sbag1
(g8
g3
NtRp3048
(dp3049
g11
g2719
sg13
S'URW Palladio L'
p3050
sg15
I500
sg16
g2719
sg17
g2719
sg18
g2639
sg20
g2721
sbag1
(g8
g3
NtRp3051
(dp3052
g11
g2724
sg13
S'URW Bookman L'
p3053
sg15
I400
sg16
g2719
sg17
g2719
sg18
g2640
sg20
g2721
sbag1
(g8
g3
NtRp3054
(dp3055
g11
g2719
sg13
S'LMMonoPropLt10'
p3056
sg15
I700
sg16
g2719
sg17
g2719
sg18
g2641
sg20
g2721
sbag1
(g8
g3
NtRp3057
(dp3058
g11
g2724
sg13
S'Nimbus Roman No9 L'
p3059
sg15
I400
sg16
g2719
sg17
g2719
sg18
g2642
sg20
g2721
sbag1
(g8
g3
NtRp3060
(dp3061
g11
g2724
sg13
S'TeXGyreHeros'
p3062
sg15
I400
sg16
g2719
sg17
g2719
sg18
g2643
sg20
g2721
sbag1
(g8
g3
NtRp3063
(dp3064
g11
g2724
sg13
S'LMMonoLt10'
p3065
sg15
I200
sg16
g2719
sg17
g2719
sg18
g2644
sg20
g2721
sbag1
(g8
g3
NtRp3066
(dp3067
g11
g2719
sg13
S'LMMonoPropLt10'
p3068
sg15
I200
sg16
g2719
sg17
g2719
sg18
g2645
sg20
g2721
sbag1
(g8
g3
NtRp3069
(dp3070
g11
g2719
sg13
S'Nimbus Roman No9 L'
p3071
sg15
I400
sg16
g2719
sg17
g2719
sg18
g2646
sg20
g2721
sbag1
(g8
g3
NtRp3072
(dp3073
g11
g2724
sg13
S'LMSans10'
p3074
sg15
I400
sg16
g2719
sg17
g2719
sg18
g2647
sg20
g2721
sbag1
(g8
g3
NtRp3075
(dp3076
g11
g2719
sg13
S'Standard Symbols L'
p3077
sg15
I400
sg16
g2719
sg17
g2719
sg18
g2648
sg20
g2721
sbag1
(g8
g3
NtRp3078
(dp3079
g11
g2719
sg13
S'Nimbus Roman No9 L'
p3080
sg15
I700
sg16
g2719
sg17
g2719
sg18
g2649
sg20
g2721
sbag1
(g8
g3
NtRp3081
(dp3082
g11
g2724
sg13
S'URW Palladio L'
p3083
sg15
I700
sg16
g2719
sg17
g2719
sg18
g2650
sg20
g2721
sbag1
(g8
g3
NtRp3084
(dp3085
g11
g2724
sg13
S'TeXGyreTermes'
p3086
sg15
I400
sg16
g2719
sg17
g2719
sg18
g2651
sg20
g2721
sbag1
(g8
g3
NtRp3087
(dp3088
g11
g2724
sg13
S'TeXGyreCursor'
p3089
sg15
I700
sg16
g2719
sg17
g2719
sg18
g2652
sg20
g2721
sbag1
(g8
g3
NtRp3090
(dp3091
g11
g2719
sg13
S'Century Schoolbook L'
p3092
sg15
I500
sg16
g2719
sg17
g2719
sg18
g2654
sg20
g2721
sbag1
(g8
g3
NtRp3093
(dp3094
g11
g2719
sg13
S'TeXGyreTermes'
p3095
sg15
I400
sg16
g2719
sg17
g2719
sg18
g2655
sg20
g2721
sbag1
(g8
g3
NtRp3096
(dp3097
g11
g2719
sg13
S'LMMonoCaps10'
p3098
sg15
I400
sg16
g2719
sg17
g2719
sg18
g2656
sg20
g2721
sbag1
(g8
g3
NtRp3099
(dp3100
g11
g2724
sg13
S'LMRomanCaps10'
p3101
sg15
I400
sg16
g2719
sg17
g2719
sg18
g2657
sg20
g2721
sbag1
(g8
g3
NtRp3102
(dp3103
g11
g2719
sg13
S'TeXGyreAdventor'
p3104
sg15
I700
sg16
g2719
sg17
g2719
sg18
g2658
sg20
g2721
sbag1
(g8
g3
NtRp3105
(dp3106
g11
g2724
sg13
S'Bitstream Charter'
p3107
sg15
I700
sg16
g2719
sg17
g2719
sg18
g2659
sg20
g2721
sbag1
(g8
g3
NtRp3108
(dp3109
g11
g2724
sg13
S'LMMonoProp10'
p3110
sg15
I400
sg16
g2719
sg17
g2719
sg18
g2660
sg20
g2721
sbag1
(g8
g3
NtRp3111
(dp3112
g11
g2724
sg13
S'Bitstream Charter'
p3113
sg15
I400
sg16
g2719
sg17
g2719
sg18
g2662
sg20
g2721
sbag1
(g8
g3
NtRp3114
(dp3115
g11
g2719
sg13
S'LMSans10'
p3116
sg15
I400
sg16
g2719
sg17
g2719
sg18
g2663
sg20
g2721
sbag1
(g8
g3
NtRp3117
(dp3118
g11
g2719
sg13
S'LMMonoProp10'
p3119
sg15
I400
sg16
g2719
sg17
g2719
sg18
g2664
sg20
g2721
sbag1
(g8
g3
NtRp3120
(dp3121
g11
g2724
sg13
S'URW Bookman L'
p3122
sg15
I700
sg16
g2719
sg17
g2719
sg18
g2665
sg20
g2721
sbag1
(g8
g3
NtRp3123
(dp3124
g11
g2724
sg13
S'LMRomanDunh10'
p3125
sg15
I400
sg16
g2719
sg17
g2719
sg18
g2666
sg20
g2721
sbag1
(g8
g3
NtRp3126
(dp3127
g11
g2724
sg13
S'TeXGyreTermes'
p3128
sg15
I700
sg16
g2719
sg17
g2719
sg18
g2667
sg20
g2721
sbag1
(g8
g3
NtRp3129
(dp3130
g11
g2724
sg13
S'TeXGyreSchola'
p3131
sg15
I400
sg16
g2719
sg17
g2719
sg18
g2668
sg20
g2721
sbag1
(g8
g3
NtRp3132
(dp3133
g11
g2719
sg13
S'Nimbus Mono L'
p3134
sg15
I700
sg16
g2719
sg17
g2719
sg18
g2670
sg20
g2721
sbag1
(g8
g3
NtRp3135
(dp3136
g11
g2724
sg13
S'TeXGyreHerosCondensed'
p3137
sg15
I700
sg16
g2741
sg17
g2719
sg18
g2671
sg20
g2721
sbag1
(g8
g3
NtRp3138
(dp3139
g11
g2724
sg13
S'LMRoman10'
p3140
sg15
I400
sg16
g2719
sg17
g2719
sg18
g2673
sg20
g2721
sbag1
(g8
g3
NtRp3141
(dp3142
g11
g2719
sg13
S'Nimbus Sans L'
p3143
sg15
I700
sg16
g2719
sg17
g2719
sg18
g2674
sg20
g2721
sbag1
(g8
g3
NtRp3144
(dp3145
g11
g2719
sg13
S'LMRoman10'
p3146
sg15
I400
sg16
g2719
sg17
g2719
sg18
g2675
sg20
g2721
sbag1
(g8
g3
NtRp3147
(dp3148
g11
g2719
sg13
S'URW Gothic L'
p3149
sg15
I600
sg16
g2719
sg17
g2719
sg18
g2676
sg20
g2721
sbag1
(g8
g3
NtRp3150
(dp3151
g11
g2719
sg13
S'LMMonoLt10'
p3152
sg15
I200
sg16
g2719
sg17
g2719
sg18
g2677
sg20
g2721
sbag1
(g8
g3
NtRp3153
(dp3154
g11
g2724
sg13
S'TeXGyrePagella'
p3155
sg15
I400
sg16
g2719
sg17
g2719
sg18
g2678
sg20
g2721
sbag1
(g8
g3
NtRp3156
(dp3157
g11
g2724
sg13
S'TeXGyreAdventor'
p3158
sg15
I700
sg16
g2719
sg17
g2719
sg18
g2679
sg20
g2721
sbag1
(g8
g3
NtRp3159
(dp3160
g11
g2719
sg13
S'TeXGyreHerosCondensed'
p3161
sg15
I400
sg16
g2741
sg17
g2719
sg18
g2680
sg20
g2721
sbag1
(g8
g3
NtRp3162
(dp3163
g11
g2724
sg13
S'LMMonoLtCond10'
p3164
sg15
I200
sg16
g2741
sg17
g2719
sg18
g2681
sg20
g2721
sbag1
(g8
g3
NtRp3165
(dp3166
g11
g2719
sg13
S'Century Schoolbook L'
p3167
sg15
I700
sg16
g2719
sg17
g2719
sg18
g2682
sg20
g2721
sbag1
(g8
g3
NtRp3168
(dp3169
g11
g2719
sg13
S'TeXGyrePagella'
p3170
sg15
I700
sg16
g2719
sg17
g2719
sg18
g2683
sg20
g2721
sbag1
(g8
g3
NtRp3171
(dp3172
g11
g2719
sg13
S'Nimbus Sans L'
p3173
sg15
I700
sg16
g2741
sg17
g2719
sg18
g2684
sg20
g2721
sbag1
(g8
g3
NtRp3174
(dp3175
g11
g2719
sg13
S'Nimbus Mono L'
p3176
sg15
I400
sg16
g2719
sg17
g2719
sg18
g2685
sg20
g2721
sbag1
(g8
g3
NtRp3177
(dp3178
g11
g2724
sg13
S'URW Gothic L'
p3179
sg15
I400
sg16
g2719
sg17
g2719
sg18
g2686
sg20
g2721
sbag1
(g8
g3
NtRp3180
(dp3181
g11
g2724
sg13
S'LMMonoPropLt10'
p3182
sg15
I700
sg16
g2719
sg17
g2719
sg18
g2687
sg20
g2721
sbag1
(g8
g3
NtRp3183
(dp3184
g11
g2724
sg13
S'Bitstream Charter'
p3185
sg15
I400
sg16
g2719
sg17
g2719
sg18
g2688
sg20
g2721
sbag1
(g8
g3
NtRp3186
(dp3187
g11
g2719
sg13
S'Bitstream Charter'
p3188
sg15
I700
sg16
g2719
sg17
g2719
sg18
g2689
sg20
g2721
sbag1
(g8
g3
NtRp3189
(dp3190
g11
g2724
sg13
S'Century Schoolbook L'
p3191
sg15
I400
sg16
g2719
sg17
g2719
sg18
g2690
sg20
g2721
sbag1
(g8
g3
NtRp3192
(dp3193
g11
g2724
sg13
S'TeXGyreCursor'
p3194
sg15
I400
sg16
g2719
sg17
g2719
sg18
g2691
sg20
g2721
sbag1
(g8
g3
NtRp3195
(dp3196
g11
g2724
sg13
S'Nimbus Sans L'
p3197
sg15
I700
sg16
g2741
sg17
g2719
sg18
g2692
sg20
g2721
sbag1
(g8
g3
NtRp3198
(dp3199
g11
g2724
sg13
S'Courier 10 Pitch'
p3200
sg15
I400
sg16
g2719
sg17
g2719
sg18
g2693
sg20
g2721
sbag1
(g8
g3
NtRp3201
(dp3202
g11
g2719
sg13
S'LMSansQuot8'
p3203
sg15
I400
sg16
g2719
sg17
g2719
sg18
g2694
sg20
g2721
sbag1
(g8
g3
NtRp3204
(dp3205
g11
g2724
sg13
S'LMSans10'
p3206
sg15
I700
sg16
g2719
sg17
g2719
sg18
g2695
sg20
g2721
sbag1
(g8
g3
NtRp3207
(dp3208
g11
g2719
sg13
S'TeXGyreAdventor'
p3209
sg15
I400
sg16
g2719
sg17
g2719
sg18
g2697
sg20
g2721
sbag1
(g8
g3
NtRp3210
(dp3211
g11
g2719
sg13
S'Nimbus Sans L'
p3212
sg15
I400
sg16
g2741
sg17
g2719
sg18
g2698
sg20
g2721
sbag1
(g8
g3
NtRp3213
(dp3214
g11
g2719
sg13
S'Bitstream Charter'
p3215
sg15
I400
sg16
g2719
sg17
g2719
sg18
g2699
sg20
g2721
sbag1
(g8
g3
NtRp3216
(dp3217
g11
g2724
sg13
S'Nimbus Sans L'
p3218
sg15
I400
sg16
g2719
sg17
g2719
sg18
g2700
sg20
g2721
sbag1
(g8
g3
NtRp3219
(dp3220
g11
g2724
sg13
S'LMMonoLt10'
p3221
sg15
I700
sg16
g2719
sg17
g2719
sg18
g2701
sg20
g2721
sbag1
(g8
g3
NtRp3222
(dp3223
g11
g2724
sg13
S'TeXGyreChorus'
p3224
sg15
I500
sg16
g2719
sg17
g2719
sg18
g2702
sg20
g2721
sbag1
(g8
g3
NtRp3225
(dp3226
g11
g2724
sg13
S'Courier 10 Pitch'
p3227
sg15
I700
sg16
g2719
sg17
g2719
sg18
g2703
sg20
g2721
sbag1
(g8
g3
NtRp3228
(dp3229
g11
g2724
sg13
S'LMRomanDemi10'
p3230
sg15
I600
sg16
g2719
sg17
g2719
sg18
g2704
sg20
g2721
sbag1
(g8
g3
NtRp3231
(dp3232
g11
g2724
sg13
S'URW Palladio L'
p3233
sg15
I400
sg16
g2719
sg17
g2719
sg18
g2705
sg20
g2721
sbag1
(g8
g3
NtRp3234
(dp3235
g11
g2724
sg13
S'TeXGyrePagella'
p3236
sg15
I700
sg16
g2719
sg17
g2719
sg18
g2706
sg20
g2721
sbag1
(g8
g3
NtRp3237
(dp3238
g11
g2719
sg13
S'LMSansDemiCond10'
p3239
sg15
I600
sg16
g2741
sg17
g2719
sg18
g2707
sg20
g2721
sbag1
(g8
g3
NtRp3240
(dp3241
g11
g2724
sg13
S'LMMonoSlant10'
p3242
sg15
I400
sg16
g2719
sg17
g2719
sg18
g2708
sg20
g2721
sbag1
(g8
g3
NtRp3243
(dp3244
g11
g2724
sg13
S'Nimbus Mono L'
p3245
sg15
I400
sg16
g2719
sg17
g2719
sg18
g2709
sg20
g2721
sbag1
(g8
g3
NtRp3246
(dp3247
g11
g2724
sg13
S'TeXGyreHerosCondensed'
p3248
sg15
I400
sg16
g2741
sg17
g2719
sg18
g2710
sg20
g2721
sbag1
(g8
g3
NtRp3249
(dp3250
g11
g2724
sg13
S'URW Gothic L'
p3251
sg15
I600
sg16
g2719
sg17
g2719
sg18
g2711
sg20
g2721
sbag1
(g8
g3
NtRp3252
(dp3253
g11
g2724
sg13
S'TeXGyreBonum'
p3254
sg15
I400
sg16
g2719
sg17
g2719
sg18
g2712
sg20
g2721
sbag1
(g8
g3
NtRp3255
(dp3256
g11
g2719
sg13
S'Bitstream Charter'
p3257
sg15
I700
sg16
g2719
sg17
g2719
sg18
g2713
sg20
g2721
sbag1
(g8
g3
NtRp3258
(dp3259
g11
g2719
sg13
S'LMRomanUnsl10'
p3260
sg15
I400
sg16
g2719
sg17
g2719
sg18
g2714
sg20
g2721
sbasb.